
main:     file format elf32-i386


Disassembly of section .init:

08048e6c <_init>:
 8048e6c:	53                   	push   %ebx
 8048e6d:	83 ec 08             	sub    $0x8,%esp
 8048e70:	e8 00 00 00 00       	call   8048e75 <_init+0x9>
 8048e75:	5b                   	pop    %ebx
 8048e76:	81 c3 7f 91 00 00    	add    $0x917f,%ebx
 8048e7c:	8b 83 fc ff ff ff    	mov    -0x4(%ebx),%eax
 8048e82:	85 c0                	test   %eax,%eax
 8048e84:	74 05                	je     8048e8b <_init+0x1f>
 8048e86:	e8 d5 02 00 00       	call   8049160 <__gmon_start__@plt>
 8048e8b:	e8 90 03 00 00       	call   8049220 <frame_dummy>
 8048e90:	e8 2b 42 00 00       	call   804d0c0 <__do_global_ctors_aux>
 8048e95:	83 c4 08             	add    $0x8,%esp
 8048e98:	5b                   	pop    %ebx
 8048e99:	c3                   	ret    

Disassembly of section .plt:

08048ea0 <_Znwj@plt-0x10>:
 8048ea0:	ff 35 f8 1f 05 08    	pushl  0x8051ff8
 8048ea6:	ff 25 fc 1f 05 08    	jmp    *0x8051ffc
 8048eac:	00 00                	add    %al,(%eax)
	...

08048eb0 <_Znwj@plt>:
 8048eb0:	ff 25 00 20 05 08    	jmp    *0x8052000
 8048eb6:	68 00 00 00 00       	push   $0x0
 8048ebb:	e9 e0 ff ff ff       	jmp    8048ea0 <_init+0x34>

08048ec0 <_ZN4Poco15SystemExceptionC1ERKSsi@plt>:
 8048ec0:	ff 25 04 20 05 08    	jmp    *0x8052004
 8048ec6:	68 08 00 00 00       	push   $0x8
 8048ecb:	e9 d0 ff ff ff       	jmp    8048ea0 <_init+0x34>

08048ed0 <pthread_cond_broadcast@plt>:
 8048ed0:	ff 25 08 20 05 08    	jmp    *0x8052008
 8048ed6:	68 10 00 00 00       	push   $0x10
 8048edb:	e9 c0 ff ff ff       	jmp    8048ea0 <_init+0x34>

08048ee0 <pthread_cancel@plt>:
 8048ee0:	ff 25 0c 20 05 08    	jmp    *0x805200c
 8048ee6:	68 18 00 00 00       	push   $0x18
 8048eeb:	e9 b0 ff ff ff       	jmp    8048ea0 <_init+0x34>

08048ef0 <_ZSt17__throw_bad_allocv@plt>:
 8048ef0:	ff 25 10 20 05 08    	jmp    *0x8052010
 8048ef6:	68 20 00 00 00       	push   $0x20
 8048efb:	e9 a0 ff ff ff       	jmp    8048ea0 <_init+0x34>

08048f00 <__cxa_begin_catch@plt>:
 8048f00:	ff 25 14 20 05 08    	jmp    *0x8052014
 8048f06:	68 28 00 00 00       	push   $0x28
 8048f0b:	e9 90 ff ff ff       	jmp    8048ea0 <_init+0x34>

08048f10 <_ZN4Poco6Thread5startERNS_8RunnableE@plt>:
 8048f10:	ff 25 18 20 05 08    	jmp    *0x8052018
 8048f16:	68 30 00 00 00       	push   $0x30
 8048f1b:	e9 80 ff ff ff       	jmp    8048ea0 <_init+0x34>

08048f20 <_ZSt4endlIcSt11char_traitsIcEERSt13basic_ostreamIT_T0_ES6_@plt>:
 8048f20:	ff 25 1c 20 05 08    	jmp    *0x805201c
 8048f26:	68 38 00 00 00       	push   $0x38
 8048f2b:	e9 70 ff ff ff       	jmp    8048ea0 <_init+0x34>

08048f30 <__cxa_allocate_exception@plt>:
 8048f30:	ff 25 20 20 05 08    	jmp    *0x8052020
 8048f36:	68 40 00 00 00       	push   $0x40
 8048f3b:	e9 60 ff ff ff       	jmp    8048ea0 <_init+0x34>

08048f40 <_ZSt20__throw_length_errorPKc@plt>:
 8048f40:	ff 25 24 20 05 08    	jmp    *0x8052024
 8048f46:	68 48 00 00 00       	push   $0x48
 8048f4b:	e9 50 ff ff ff       	jmp    8048ea0 <_init+0x34>

08048f50 <_ZN4Poco8RunnableD2Ev@plt>:
 8048f50:	ff 25 28 20 05 08    	jmp    *0x8052028
 8048f56:	68 50 00 00 00       	push   $0x50
 8048f5b:	e9 40 ff ff ff       	jmp    8048ea0 <_init+0x34>

08048f60 <_ZN4Poco8RunnableC2Ev@plt>:
 8048f60:	ff 25 2c 20 05 08    	jmp    *0x805202c
 8048f66:	68 58 00 00 00       	push   $0x58
 8048f6b:	e9 30 ff ff ff       	jmp    8048ea0 <_init+0x34>

08048f70 <_ZN4Poco5EventC1Eb@plt>:
 8048f70:	ff 25 30 20 05 08    	jmp    *0x8052030
 8048f76:	68 60 00 00 00       	push   $0x60
 8048f7b:	e9 20 ff ff ff       	jmp    8048ea0 <_init+0x34>

08048f80 <__cxa_atexit@plt>:
 8048f80:	ff 25 34 20 05 08    	jmp    *0x8052034
 8048f86:	68 68 00 00 00       	push   $0x68
 8048f8b:	e9 10 ff ff ff       	jmp    8048ea0 <_init+0x34>

08048f90 <__cxa_free_exception@plt>:
 8048f90:	ff 25 38 20 05 08    	jmp    *0x8052038
 8048f96:	68 70 00 00 00       	push   $0x70
 8048f9b:	e9 00 ff ff ff       	jmp    8048ea0 <_init+0x34>

08048fa0 <_ZN4Poco9EventImpl8waitImplEv@plt>:
 8048fa0:	ff 25 3c 20 05 08    	jmp    *0x805203c
 8048fa6:	68 78 00 00 00       	push   $0x78
 8048fab:	e9 f0 fe ff ff       	jmp    8048ea0 <_init+0x34>

08048fb0 <_ZdlPv@plt>:
 8048fb0:	ff 25 40 20 05 08    	jmp    *0x8052040
 8048fb6:	68 80 00 00 00       	push   $0x80
 8048fbb:	e9 e0 fe ff ff       	jmp    8048ea0 <_init+0x34>

08048fc0 <__libc_start_main@plt>:
 8048fc0:	ff 25 44 20 05 08    	jmp    *0x8052044
 8048fc6:	68 88 00 00 00       	push   $0x88
 8048fcb:	e9 d0 fe ff ff       	jmp    8048ea0 <_init+0x34>

08048fd0 <pthread_mutex_unlock@plt>:
 8048fd0:	ff 25 48 20 05 08    	jmp    *0x8052048
 8048fd6:	68 90 00 00 00       	push   $0x90
 8048fdb:	e9 c0 fe ff ff       	jmp    8048ea0 <_init+0x34>

08048fe0 <_ZStlsISt11char_traitsIcEERSt13basic_ostreamIcT_ES5_PKc@plt>:
 8048fe0:	ff 25 4c 20 05 08    	jmp    *0x805204c
 8048fe6:	68 98 00 00 00       	push   $0x98
 8048feb:	e9 b0 fe ff ff       	jmp    8048ea0 <_init+0x34>

08048ff0 <_ZNSolsEPFRSoS_E@plt>:
 8048ff0:	ff 25 50 20 05 08    	jmp    *0x8052050
 8048ff6:	68 a0 00 00 00       	push   $0xa0
 8048ffb:	e9 a0 fe ff ff       	jmp    8048ea0 <_init+0x34>

08049000 <_ZNSaIcED1Ev@plt>:
 8049000:	ff 25 54 20 05 08    	jmp    *0x8052054
 8049006:	68 a8 00 00 00       	push   $0xa8
 804900b:	e9 90 fe ff ff       	jmp    8048ea0 <_init+0x34>

08049010 <__stack_chk_fail@plt>:
 8049010:	ff 25 58 20 05 08    	jmp    *0x8052058
 8049016:	68 b0 00 00 00       	push   $0xb0
 804901b:	e9 80 fe ff ff       	jmp    8048ea0 <_init+0x34>

08049020 <_ZNSsC1EPKcRKSaIcE@plt>:
 8049020:	ff 25 5c 20 05 08    	jmp    *0x805205c
 8049026:	68 b8 00 00 00       	push   $0xb8
 804902b:	e9 70 fe ff ff       	jmp    8048ea0 <_init+0x34>

08049030 <pthread_mutex_lock@plt>:
 8049030:	ff 25 60 20 05 08    	jmp    *0x8052060
 8049036:	68 c0 00 00 00       	push   $0xc0
 804903b:	e9 60 fe ff ff       	jmp    8048ea0 <_init+0x34>

08049040 <_ZN4Poco6ThreadC2Ev@plt>:
 8049040:	ff 25 64 20 05 08    	jmp    *0x8052064
 8049046:	68 c8 00 00 00       	push   $0xc8
 804904b:	e9 50 fe ff ff       	jmp    8048ea0 <_init+0x34>

08049050 <_ZN4Poco5EventD1Ev@plt>:
 8049050:	ff 25 68 20 05 08    	jmp    *0x8052068
 8049056:	68 d0 00 00 00       	push   $0xd0
 804905b:	e9 40 fe ff ff       	jmp    8048ea0 <_init+0x34>

08049060 <_ZN4Poco10ThreadImpl9sleepImplEl@plt>:
 8049060:	ff 25 6c 20 05 08    	jmp    *0x805206c
 8049066:	68 d8 00 00 00       	push   $0xd8
 804906b:	e9 30 fe ff ff       	jmp    8048ea0 <_init+0x34>

08049070 <_ZNSolsEj@plt>:
 8049070:	ff 25 70 20 05 08    	jmp    *0x8052070
 8049076:	68 e0 00 00 00       	push   $0xe0
 804907b:	e9 20 fe ff ff       	jmp    8048ea0 <_init+0x34>

08049080 <__cxa_rethrow@plt>:
 8049080:	ff 25 74 20 05 08    	jmp    *0x8052074
 8049086:	68 e8 00 00 00       	push   $0xe8
 804908b:	e9 10 fe ff ff       	jmp    8048ea0 <_init+0x34>

08049090 <_ZNSt8ios_base4InitC1Ev@plt>:
 8049090:	ff 25 78 20 05 08    	jmp    *0x8052078
 8049096:	68 f0 00 00 00       	push   $0xf0
 804909b:	e9 00 fe ff ff       	jmp    8048ea0 <_init+0x34>

080490a0 <_ZNSsD1Ev@plt>:
 80490a0:	ff 25 7c 20 05 08    	jmp    *0x805207c
 80490a6:	68 f8 00 00 00       	push   $0xf8
 80490ab:	e9 f0 fd ff ff       	jmp    8048ea0 <_init+0x34>

080490b0 <__cxa_end_catch@plt>:
 80490b0:	ff 25 80 20 05 08    	jmp    *0x8052080
 80490b6:	68 00 01 00 00       	push   $0x100
 80490bb:	e9 e0 fd ff ff       	jmp    8048ea0 <_init+0x34>

080490c0 <__gxx_personality_v0@plt>:
 80490c0:	ff 25 84 20 05 08    	jmp    *0x8052084
 80490c6:	68 08 01 00 00       	push   $0x108
 80490cb:	e9 d0 fd ff ff       	jmp    8048ea0 <_init+0x34>

080490d0 <__cxa_throw@plt>:
 80490d0:	ff 25 88 20 05 08    	jmp    *0x8052088
 80490d6:	68 10 01 00 00       	push   $0x110
 80490db:	e9 c0 fd ff ff       	jmp    8048ea0 <_init+0x34>

080490e0 <_ZNSolsEi@plt>:
 80490e0:	ff 25 8c 20 05 08    	jmp    *0x805208c
 80490e6:	68 18 01 00 00       	push   $0x118
 80490eb:	e9 b0 fd ff ff       	jmp    8048ea0 <_init+0x34>

080490f0 <_ZN4Poco6Thread4joinEv@plt>:
 80490f0:	ff 25 90 20 05 08    	jmp    *0x8052090
 80490f6:	68 20 01 00 00       	push   $0x120
 80490fb:	e9 a0 fd ff ff       	jmp    8048ea0 <_init+0x34>

08049100 <_ZN4Poco15SystemExceptionD1Ev@plt>:
 8049100:	ff 25 94 20 05 08    	jmp    *0x8052094
 8049106:	68 28 01 00 00       	push   $0x128
 804910b:	e9 90 fd ff ff       	jmp    8048ea0 <_init+0x34>

08049110 <_Unwind_Resume@plt>:
 8049110:	ff 25 98 20 05 08    	jmp    *0x8052098
 8049116:	68 30 01 00 00       	push   $0x130
 804911b:	e9 80 fd ff ff       	jmp    8048ea0 <_init+0x34>

08049120 <_ZNSaIcEC1Ev@plt>:
 8049120:	ff 25 9c 20 05 08    	jmp    *0x805209c
 8049126:	68 38 01 00 00       	push   $0x138
 804912b:	e9 70 fd ff ff       	jmp    8048ea0 <_init+0x34>

08049130 <memmove@plt>:
 8049130:	ff 25 a0 20 05 08    	jmp    *0x80520a0
 8049136:	68 40 01 00 00       	push   $0x140
 804913b:	e9 60 fd ff ff       	jmp    8048ea0 <_init+0x34>

08049140 <_ZN4Poco6ThreadD2Ev@plt>:
 8049140:	ff 25 a4 20 05 08    	jmp    *0x80520a4
 8049146:	68 48 01 00 00       	push   $0x148
 804914b:	e9 50 fd ff ff       	jmp    8048ea0 <_init+0x34>

08049150 <_ZNSt9exceptionD2Ev@plt>:
 8049150:	ff 25 a8 20 05 08    	jmp    *0x80520a8
 8049156:	68 50 01 00 00       	push   $0x150
 804915b:	e9 40 fd ff ff       	jmp    8048ea0 <_init+0x34>

08049160 <__gmon_start__@plt>:
 8049160:	ff 25 ac 20 05 08    	jmp    *0x80520ac
 8049166:	68 58 01 00 00       	push   $0x158
 804916b:	e9 30 fd ff ff       	jmp    8048ea0 <_init+0x34>

08049170 <_ZNKSt9exception4whatEv@plt>:
 8049170:	ff 25 b0 20 05 08    	jmp    *0x80520b0
 8049176:	68 60 01 00 00       	push   $0x160
 804917b:	e9 20 fd ff ff       	jmp    8048ea0 <_init+0x34>

08049180 <_ZNSt8ios_base4InitD1Ev@plt>:
 8049180:	ff 25 b4 20 05 08    	jmp    *0x80520b4
 8049186:	68 68 01 00 00       	push   $0x168
 804918b:	e9 10 fd ff ff       	jmp    8048ea0 <_init+0x34>

Disassembly of section .text:

08049190 <_start>:
 8049190:	31 ed                	xor    %ebp,%ebp
 8049192:	5e                   	pop    %esi
 8049193:	89 e1                	mov    %esp,%ecx
 8049195:	83 e4 f0             	and    $0xfffffff0,%esp
 8049198:	50                   	push   %eax
 8049199:	54                   	push   %esp
 804919a:	52                   	push   %edx
 804919b:	68 b0 d0 04 08       	push   $0x804d0b0
 80491a0:	68 40 d0 04 08       	push   $0x804d040
 80491a5:	51                   	push   %ecx
 80491a6:	56                   	push   %esi
 80491a7:	68 44 92 04 08       	push   $0x8049244
 80491ac:	e8 0f fe ff ff       	call   8048fc0 <__libc_start_main@plt>
 80491b1:	f4                   	hlt    
 80491b2:	90                   	nop
 80491b3:	90                   	nop
 80491b4:	90                   	nop
 80491b5:	90                   	nop
 80491b6:	90                   	nop
 80491b7:	90                   	nop
 80491b8:	90                   	nop
 80491b9:	90                   	nop
 80491ba:	90                   	nop
 80491bb:	90                   	nop
 80491bc:	90                   	nop
 80491bd:	90                   	nop
 80491be:	90                   	nop
 80491bf:	90                   	nop

080491c0 <__do_global_dtors_aux>:
 80491c0:	55                   	push   %ebp
 80491c1:	89 e5                	mov    %esp,%ebp
 80491c3:	53                   	push   %ebx
 80491c4:	83 ec 04             	sub    $0x4,%esp
 80491c7:	80 3d 14 22 05 08 00 	cmpb   $0x0,0x8052214
 80491ce:	75 3f                	jne    804920f <__do_global_dtors_aux+0x4f>
 80491d0:	a1 18 22 05 08       	mov    0x8052218,%eax
 80491d5:	bb f0 1e 05 08       	mov    $0x8051ef0,%ebx
 80491da:	81 eb ec 1e 05 08    	sub    $0x8051eec,%ebx
 80491e0:	c1 fb 02             	sar    $0x2,%ebx
 80491e3:	83 eb 01             	sub    $0x1,%ebx
 80491e6:	39 d8                	cmp    %ebx,%eax
 80491e8:	73 1e                	jae    8049208 <__do_global_dtors_aux+0x48>
 80491ea:	8d b6 00 00 00 00    	lea    0x0(%esi),%esi
 80491f0:	83 c0 01             	add    $0x1,%eax
 80491f3:	a3 18 22 05 08       	mov    %eax,0x8052218
 80491f8:	ff 14 85 ec 1e 05 08 	call   *0x8051eec(,%eax,4)
 80491ff:	a1 18 22 05 08       	mov    0x8052218,%eax
 8049204:	39 d8                	cmp    %ebx,%eax
 8049206:	72 e8                	jb     80491f0 <__do_global_dtors_aux+0x30>
 8049208:	c6 05 14 22 05 08 01 	movb   $0x1,0x8052214
 804920f:	83 c4 04             	add    $0x4,%esp
 8049212:	5b                   	pop    %ebx
 8049213:	5d                   	pop    %ebp
 8049214:	c3                   	ret    
 8049215:	8d 74 26 00          	lea    0x0(%esi,%eiz,1),%esi
 8049219:	8d bc 27 00 00 00 00 	lea    0x0(%edi,%eiz,1),%edi

08049220 <frame_dummy>:
 8049220:	55                   	push   %ebp
 8049221:	89 e5                	mov    %esp,%ebp
 8049223:	83 ec 18             	sub    $0x18,%esp
 8049226:	a1 f4 1e 05 08       	mov    0x8051ef4,%eax
 804922b:	85 c0                	test   %eax,%eax
 804922d:	74 12                	je     8049241 <frame_dummy+0x21>
 804922f:	b8 00 00 00 00       	mov    $0x0,%eax
 8049234:	85 c0                	test   %eax,%eax
 8049236:	74 09                	je     8049241 <frame_dummy+0x21>
 8049238:	c7 04 24 f4 1e 05 08 	movl   $0x8051ef4,(%esp)
 804923f:	ff d0                	call   *%eax
 8049241:	c9                   	leave  
 8049242:	c3                   	ret    
 8049243:	90                   	nop

08049244 <main>:
 8049244:	55                   	push   %ebp
 8049245:	89 e5                	mov    %esp,%ebp
 8049247:	53                   	push   %ebx
 8049248:	83 e4 f0             	and    $0xfffffff0,%esp
 804924b:	83 ec 30             	sub    $0x30,%esp
 804924e:	8d 44 24 24          	lea    0x24(%esp),%eax
 8049252:	89 04 24             	mov    %eax,(%esp)
 8049255:	e8 8a 08 00 00       	call   8049ae4 <_ZN11MirrorProxyC1Ev>
 804925a:	c7 44 24 04 05 00 00 	movl   $0x5,0x4(%esp)
 8049261:	00 
 8049262:	8d 44 24 24          	lea    0x24(%esp),%eax
 8049266:	89 04 24             	mov    %eax,(%esp)
 8049269:	e8 9c 09 00 00       	call   8049c0a <_ZN11MirrorProxy4fun1Ei>
 804926e:	8d 44 24 18          	lea    0x18(%esp),%eax
 8049272:	89 04 24             	mov    %eax,(%esp)
 8049275:	e8 50 13 00 00       	call   804a5ca <_ZNSt6vectorIiSaIiEEC1Ev>
 804927a:	c7 44 24 2c 00 00 00 	movl   $0x0,0x2c(%esp)
 8049281:	00 
 8049282:	eb 1f                	jmp    80492a3 <main+0x5f>
 8049284:	8d 44 24 2c          	lea    0x2c(%esp),%eax
 8049288:	89 44 24 04          	mov    %eax,0x4(%esp)
 804928c:	8d 44 24 18          	lea    0x18(%esp),%eax
 8049290:	89 04 24             	mov    %eax,(%esp)
 8049293:	e8 46 13 00 00       	call   804a5de <_ZNSt6vectorIiSaIiEE9push_backERKi>
 8049298:	8b 44 24 2c          	mov    0x2c(%esp),%eax
 804929c:	83 c0 01             	add    $0x1,%eax
 804929f:	89 44 24 2c          	mov    %eax,0x2c(%esp)
 80492a3:	8b 44 24 2c          	mov    0x2c(%esp),%eax
 80492a7:	83 f8 63             	cmp    $0x63,%eax
 80492aa:	0f 9e c0             	setle  %al
 80492ad:	84 c0                	test   %al,%al
 80492af:	75 d3                	jne    8049284 <main+0x40>
 80492b1:	8d 44 24 18          	lea    0x18(%esp),%eax
 80492b5:	89 44 24 04          	mov    %eax,0x4(%esp)
 80492b9:	8d 44 24 24          	lea    0x24(%esp),%eax
 80492bd:	89 04 24             	mov    %eax,(%esp)
 80492c0:	e8 21 0b 00 00       	call   8049de6 <_ZN11MirrorProxy5func2ERSt6vectorIiSaIiEE>
 80492c5:	c7 44 24 04 03 00 00 	movl   $0x3,0x4(%esp)
 80492cc:	00 
 80492cd:	8d 44 24 18          	lea    0x18(%esp),%eax
 80492d1:	89 04 24             	mov    %eax,(%esp)
 80492d4:	e8 79 13 00 00       	call   804a652 <_ZNSt6vectorIiSaIiEEixEj>
 80492d9:	c7 00 0b 00 00 00    	movl   $0xb,(%eax)
 80492df:	c7 04 24 e8 03 00 00 	movl   $0x3e8,(%esp)
 80492e6:	e8 9f 02 00 00       	call   804958a <_ZN4Poco6Thread5sleepEl>
 80492eb:	bb 00 00 00 00       	mov    $0x0,%ebx
 80492f0:	8d 44 24 18          	lea    0x18(%esp),%eax
 80492f4:	89 04 24             	mov    %eax,(%esp)
 80492f7:	e8 4e 11 00 00       	call   804a44a <_ZNSt6vectorIiSaIiEED1Ev>
 80492fc:	8d 44 24 24          	lea    0x24(%esp),%eax
 8049300:	89 04 24             	mov    %eax,(%esp)
 8049303:	e8 44 08 00 00       	call   8049b4c <_ZN11MirrorProxyD1Ev>
 8049308:	89 d8                	mov    %ebx,%eax
 804930a:	8b 5d fc             	mov    -0x4(%ebp),%ebx
 804930d:	c9                   	leave  
 804930e:	c3                   	ret    
 804930f:	89 c3                	mov    %eax,%ebx
 8049311:	8d 44 24 18          	lea    0x18(%esp),%eax
 8049315:	89 04 24             	mov    %eax,(%esp)
 8049318:	e8 2d 11 00 00       	call   804a44a <_ZNSt6vectorIiSaIiEED1Ev>
 804931d:	eb 02                	jmp    8049321 <main+0xdd>
 804931f:	89 c3                	mov    %eax,%ebx
 8049321:	8d 44 24 24          	lea    0x24(%esp),%eax
 8049325:	89 04 24             	mov    %eax,(%esp)
 8049328:	e8 1f 08 00 00       	call   8049b4c <_ZN11MirrorProxyD1Ev>
 804932d:	89 d8                	mov    %ebx,%eax
 804932f:	89 04 24             	mov    %eax,(%esp)
 8049332:	e8 d9 fd ff ff       	call   8049110 <_Unwind_Resume@plt>

08049337 <_Z41__static_initialization_and_destruction_0ii>:
 8049337:	55                   	push   %ebp
 8049338:	89 e5                	mov    %esp,%ebp
 804933a:	83 ec 18             	sub    $0x18,%esp
 804933d:	83 7d 08 01          	cmpl   $0x1,0x8(%ebp)
 8049341:	75 32                	jne    8049375 <_Z41__static_initialization_and_destruction_0ii+0x3e>
 8049343:	81 7d 0c ff ff 00 00 	cmpl   $0xffff,0xc(%ebp)
 804934a:	75 29                	jne    8049375 <_Z41__static_initialization_and_destruction_0ii+0x3e>
 804934c:	c7 04 24 1c 22 05 08 	movl   $0x805221c,(%esp)
 8049353:	e8 38 fd ff ff       	call   8049090 <_ZNSt8ios_base4InitC1Ev@plt>
 8049358:	b8 80 91 04 08       	mov    $0x8049180,%eax
 804935d:	c7 44 24 08 bc 20 05 	movl   $0x80520bc,0x8(%esp)
 8049364:	08 
 8049365:	c7 44 24 04 1c 22 05 	movl   $0x805221c,0x4(%esp)
 804936c:	08 
 804936d:	89 04 24             	mov    %eax,(%esp)
 8049370:	e8 0b fc ff ff       	call   8048f80 <__cxa_atexit@plt>
 8049375:	c9                   	leave  
 8049376:	c3                   	ret    

08049377 <_GLOBAL__sub_I_main>:
 8049377:	55                   	push   %ebp
 8049378:	89 e5                	mov    %esp,%ebp
 804937a:	83 ec 18             	sub    $0x18,%esp
 804937d:	c7 44 24 04 ff ff 00 	movl   $0xffff,0x4(%esp)
 8049384:	00 
 8049385:	c7 04 24 01 00 00 00 	movl   $0x1,(%esp)
 804938c:	e8 a6 ff ff ff       	call   8049337 <_Z41__static_initialization_and_destruction_0ii>
 8049391:	c9                   	leave  
 8049392:	c3                   	ret    
 8049393:	90                   	nop

08049394 <_ZNSt9exceptionC1Ev>:
 8049394:	55                   	push   %ebp
 8049395:	89 e5                	mov    %esp,%ebp
 8049397:	8b 45 08             	mov    0x8(%ebp),%eax
 804939a:	c7 00 18 21 05 08    	movl   $0x8052118,(%eax)
 80493a0:	5d                   	pop    %ebp
 80493a1:	c3                   	ret    

080493a2 <_ZnwjPv>:
 80493a2:	55                   	push   %ebp
 80493a3:	89 e5                	mov    %esp,%ebp
 80493a5:	8b 45 0c             	mov    0xc(%ebp),%eax
 80493a8:	5d                   	pop    %ebp
 80493a9:	c3                   	ret    

080493aa <_ZdlPvS_>:
 80493aa:	55                   	push   %ebp
 80493ab:	89 e5                	mov    %esp,%ebp
 80493ad:	5d                   	pop    %ebp
 80493ae:	c3                   	ret    
 80493af:	90                   	nop

080493b0 <_ZN4Poco9EventImpl7setImplEv>:
 80493b0:	55                   	push   %ebp
 80493b1:	89 e5                	mov    %esp,%ebp
 80493b3:	56                   	push   %esi
 80493b4:	53                   	push   %ebx
 80493b5:	83 ec 20             	sub    $0x20,%esp
 80493b8:	8b 45 08             	mov    0x8(%ebp),%eax
 80493bb:	83 c0 04             	add    $0x4,%eax
 80493be:	89 04 24             	mov    %eax,(%esp)
 80493c1:	e8 6a fc ff ff       	call   8049030 <pthread_mutex_lock@plt>
 80493c6:	85 c0                	test   %eax,%eax
 80493c8:	0f 95 c0             	setne  %al
 80493cb:	84 c0                	test   %al,%al
 80493cd:	74 79                	je     8049448 <_ZN4Poco9EventImpl7setImplEv+0x98>
 80493cf:	c7 04 24 10 00 00 00 	movl   $0x10,(%esp)
 80493d6:	e8 55 fb ff ff       	call   8048f30 <__cxa_allocate_exception@plt>
 80493db:	89 c3                	mov    %eax,%ebx
 80493dd:	8d 45 f6             	lea    -0xa(%ebp),%eax
 80493e0:	89 04 24             	mov    %eax,(%esp)
 80493e3:	e8 38 fd ff ff       	call   8049120 <_ZNSaIcEC1Ev@plt>
 80493e8:	8d 45 f6             	lea    -0xa(%ebp),%eax
 80493eb:	89 44 24 08          	mov    %eax,0x8(%esp)
 80493ef:	c7 44 24 04 28 d1 04 	movl   $0x804d128,0x4(%esp)
 80493f6:	08 
 80493f7:	8d 45 ec             	lea    -0x14(%ebp),%eax
 80493fa:	89 04 24             	mov    %eax,(%esp)
 80493fd:	e8 1e fc ff ff       	call   8049020 <_ZNSsC1EPKcRKSaIcE@plt>
 8049402:	c7 44 24 08 00 00 00 	movl   $0x0,0x8(%esp)
 8049409:	00 
 804940a:	8d 45 ec             	lea    -0x14(%ebp),%eax
 804940d:	89 44 24 04          	mov    %eax,0x4(%esp)
 8049411:	89 1c 24             	mov    %ebx,(%esp)
 8049414:	e8 a7 fa ff ff       	call   8048ec0 <_ZN4Poco15SystemExceptionC1ERKSsi@plt>
 8049419:	8d 45 ec             	lea    -0x14(%ebp),%eax
 804941c:	89 04 24             	mov    %eax,(%esp)
 804941f:	e8 7c fc ff ff       	call   80490a0 <_ZNSsD1Ev@plt>
 8049424:	8d 45 f6             	lea    -0xa(%ebp),%eax
 8049427:	89 04 24             	mov    %eax,(%esp)
 804942a:	e8 d1 fb ff ff       	call   8049000 <_ZNSaIcED1Ev@plt>
 804942f:	b8 00 91 04 08       	mov    $0x8049100,%eax
 8049434:	89 44 24 08          	mov    %eax,0x8(%esp)
 8049438:	c7 44 24 04 f0 20 05 	movl   $0x80520f0,0x4(%esp)
 804943f:	08 
 8049440:	89 1c 24             	mov    %ebx,(%esp)
 8049443:	e8 88 fc ff ff       	call   80490d0 <__cxa_throw@plt>
 8049448:	8b 45 08             	mov    0x8(%ebp),%eax
 804944b:	c6 40 01 01          	movb   $0x1,0x1(%eax)
 804944f:	8b 45 08             	mov    0x8(%ebp),%eax
 8049452:	83 c0 1c             	add    $0x1c,%eax
 8049455:	89 04 24             	mov    %eax,(%esp)
 8049458:	e8 73 fa ff ff       	call   8048ed0 <pthread_cond_broadcast@plt>
 804945d:	85 c0                	test   %eax,%eax
 804945f:	0f 95 c0             	setne  %al
 8049462:	84 c0                	test   %al,%al
 8049464:	0f 84 87 00 00 00    	je     80494f1 <_ZN4Poco9EventImpl7setImplEv+0x141>
 804946a:	8b 45 08             	mov    0x8(%ebp),%eax
 804946d:	83 c0 04             	add    $0x4,%eax
 8049470:	89 04 24             	mov    %eax,(%esp)
 8049473:	e8 58 fb ff ff       	call   8048fd0 <pthread_mutex_unlock@plt>
 8049478:	c7 04 24 10 00 00 00 	movl   $0x10,(%esp)
 804947f:	e8 ac fa ff ff       	call   8048f30 <__cxa_allocate_exception@plt>
 8049484:	89 c3                	mov    %eax,%ebx
 8049486:	8d 45 f7             	lea    -0x9(%ebp),%eax
 8049489:	89 04 24             	mov    %eax,(%esp)
 804948c:	e8 8f fc ff ff       	call   8049120 <_ZNSaIcEC1Ev@plt>
 8049491:	8d 45 f7             	lea    -0x9(%ebp),%eax
 8049494:	89 44 24 08          	mov    %eax,0x8(%esp)
 8049498:	c7 44 24 04 43 d1 04 	movl   $0x804d143,0x4(%esp)
 804949f:	08 
 80494a0:	8d 45 f0             	lea    -0x10(%ebp),%eax
 80494a3:	89 04 24             	mov    %eax,(%esp)
 80494a6:	e8 75 fb ff ff       	call   8049020 <_ZNSsC1EPKcRKSaIcE@plt>
 80494ab:	c7 44 24 08 00 00 00 	movl   $0x0,0x8(%esp)
 80494b2:	00 
 80494b3:	8d 45 f0             	lea    -0x10(%ebp),%eax
 80494b6:	89 44 24 04          	mov    %eax,0x4(%esp)
 80494ba:	89 1c 24             	mov    %ebx,(%esp)
 80494bd:	e8 fe f9 ff ff       	call   8048ec0 <_ZN4Poco15SystemExceptionC1ERKSsi@plt>
 80494c2:	8d 45 f0             	lea    -0x10(%ebp),%eax
 80494c5:	89 04 24             	mov    %eax,(%esp)
 80494c8:	e8 d3 fb ff ff       	call   80490a0 <_ZNSsD1Ev@plt>
 80494cd:	8d 45 f7             	lea    -0x9(%ebp),%eax
 80494d0:	89 04 24             	mov    %eax,(%esp)
 80494d3:	e8 28 fb ff ff       	call   8049000 <_ZNSaIcED1Ev@plt>
 80494d8:	b8 00 91 04 08       	mov    $0x8049100,%eax
 80494dd:	89 44 24 08          	mov    %eax,0x8(%esp)
 80494e1:	c7 44 24 04 f0 20 05 	movl   $0x80520f0,0x4(%esp)
 80494e8:	08 
 80494e9:	89 1c 24             	mov    %ebx,(%esp)
 80494ec:	e8 df fb ff ff       	call   80490d0 <__cxa_throw@plt>
 80494f1:	8b 45 08             	mov    0x8(%ebp),%eax
 80494f4:	83 c0 04             	add    $0x4,%eax
 80494f7:	89 04 24             	mov    %eax,(%esp)
 80494fa:	e8 d1 fa ff ff       	call   8048fd0 <pthread_mutex_unlock@plt>
 80494ff:	83 c4 20             	add    $0x20,%esp
 8049502:	5b                   	pop    %ebx
 8049503:	5e                   	pop    %esi
 8049504:	5d                   	pop    %ebp
 8049505:	c3                   	ret    
 8049506:	89 c6                	mov    %eax,%esi
 8049508:	8d 45 ec             	lea    -0x14(%ebp),%eax
 804950b:	89 04 24             	mov    %eax,(%esp)
 804950e:	e8 8d fb ff ff       	call   80490a0 <_ZNSsD1Ev@plt>
 8049513:	eb 02                	jmp    8049517 <_ZN4Poco9EventImpl7setImplEv+0x167>
 8049515:	89 c6                	mov    %eax,%esi
 8049517:	8d 45 f6             	lea    -0xa(%ebp),%eax
 804951a:	89 04 24             	mov    %eax,(%esp)
 804951d:	e8 de fa ff ff       	call   8049000 <_ZNSaIcED1Ev@plt>
 8049522:	89 1c 24             	mov    %ebx,(%esp)
 8049525:	e8 66 fa ff ff       	call   8048f90 <__cxa_free_exception@plt>
 804952a:	89 f0                	mov    %esi,%eax
 804952c:	89 04 24             	mov    %eax,(%esp)
 804952f:	e8 dc fb ff ff       	call   8049110 <_Unwind_Resume@plt>
 8049534:	89 c6                	mov    %eax,%esi
 8049536:	8d 45 f0             	lea    -0x10(%ebp),%eax
 8049539:	89 04 24             	mov    %eax,(%esp)
 804953c:	e8 5f fb ff ff       	call   80490a0 <_ZNSsD1Ev@plt>
 8049541:	eb 02                	jmp    8049545 <_ZN4Poco9EventImpl7setImplEv+0x195>
 8049543:	89 c6                	mov    %eax,%esi
 8049545:	8d 45 f7             	lea    -0x9(%ebp),%eax
 8049548:	89 04 24             	mov    %eax,(%esp)
 804954b:	e8 b0 fa ff ff       	call   8049000 <_ZNSaIcED1Ev@plt>
 8049550:	89 1c 24             	mov    %ebx,(%esp)
 8049553:	e8 38 fa ff ff       	call   8048f90 <__cxa_free_exception@plt>
 8049558:	89 f0                	mov    %esi,%eax
 804955a:	89 04 24             	mov    %eax,(%esp)
 804955d:	e8 ae fb ff ff       	call   8049110 <_Unwind_Resume@plt>

08049562 <_ZN4Poco5Event3setEv>:
 8049562:	55                   	push   %ebp
 8049563:	89 e5                	mov    %esp,%ebp
 8049565:	83 ec 18             	sub    $0x18,%esp
 8049568:	8b 45 08             	mov    0x8(%ebp),%eax
 804956b:	89 04 24             	mov    %eax,(%esp)
 804956e:	e8 3d fe ff ff       	call   80493b0 <_ZN4Poco9EventImpl7setImplEv>
 8049573:	c9                   	leave  
 8049574:	c3                   	ret    
 8049575:	90                   	nop

08049576 <_ZN4Poco5Event4waitEv>:
 8049576:	55                   	push   %ebp
 8049577:	89 e5                	mov    %esp,%ebp
 8049579:	83 ec 18             	sub    $0x18,%esp
 804957c:	8b 45 08             	mov    0x8(%ebp),%eax
 804957f:	89 04 24             	mov    %eax,(%esp)
 8049582:	e8 19 fa ff ff       	call   8048fa0 <_ZN4Poco9EventImpl8waitImplEv@plt>
 8049587:	c9                   	leave  
 8049588:	c3                   	ret    
 8049589:	90                   	nop

0804958a <_ZN4Poco6Thread5sleepEl>:
 804958a:	55                   	push   %ebp
 804958b:	89 e5                	mov    %esp,%ebp
 804958d:	83 ec 18             	sub    $0x18,%esp
 8049590:	8b 45 08             	mov    0x8(%ebp),%eax
 8049593:	89 04 24             	mov    %eax,(%esp)
 8049596:	e8 c5 fa ff ff       	call   8049060 <_ZN4Poco10ThreadImpl9sleepImplEl@plt>
 804959b:	c9                   	leave  
 804959c:	c3                   	ret    

0804959d <_ZSt16__deque_buf_sizej>:
 804959d:	55                   	push   %ebp
 804959e:	89 e5                	mov    %esp,%ebp
 80495a0:	81 7d 08 ff 01 00 00 	cmpl   $0x1ff,0x8(%ebp)
 80495a7:	77 0f                	ja     80495b8 <_ZSt16__deque_buf_sizej+0x1b>
 80495a9:	b8 00 02 00 00       	mov    $0x200,%eax
 80495ae:	ba 00 00 00 00       	mov    $0x0,%edx
 80495b3:	f7 75 08             	divl   0x8(%ebp)
 80495b6:	eb 05                	jmp    80495bd <_ZSt16__deque_buf_sizej+0x20>
 80495b8:	b8 01 00 00 00       	mov    $0x1,%eax
 80495bd:	5d                   	pop    %ebp
 80495be:	c3                   	ret    
 80495bf:	90                   	nop

080495c0 <_ZNSt3tr19_Any_data9_M_accessEv>:
 80495c0:	55                   	push   %ebp
 80495c1:	89 e5                	mov    %esp,%ebp
 80495c3:	8b 45 08             	mov    0x8(%ebp),%eax
 80495c6:	5d                   	pop    %ebp
 80495c7:	c3                   	ret    

080495c8 <_ZNKSt3tr19_Any_data9_M_accessEv>:
 80495c8:	55                   	push   %ebp
 80495c9:	89 e5                	mov    %esp,%ebp
 80495cb:	8b 45 08             	mov    0x8(%ebp),%eax
 80495ce:	5d                   	pop    %ebp
 80495cf:	c3                   	ret    

080495d0 <_ZNSt3tr114_Function_baseC1Ev>:
 80495d0:	55                   	push   %ebp
 80495d1:	89 e5                	mov    %esp,%ebp
 80495d3:	8b 45 08             	mov    0x8(%ebp),%eax
 80495d6:	c7 40 08 00 00 00 00 	movl   $0x0,0x8(%eax)
 80495dd:	5d                   	pop    %ebp
 80495de:	c3                   	ret    
 80495df:	90                   	nop

080495e0 <_ZNSt3tr114_Function_baseD1Ev>:
 80495e0:	55                   	push   %ebp
 80495e1:	89 e5                	mov    %esp,%ebp
 80495e3:	83 ec 18             	sub    $0x18,%esp
 80495e6:	8b 45 08             	mov    0x8(%ebp),%eax
 80495e9:	8b 40 08             	mov    0x8(%eax),%eax
 80495ec:	85 c0                	test   %eax,%eax
 80495ee:	74 1d                	je     804960d <_ZNSt3tr114_Function_baseD1Ev+0x2d>
 80495f0:	8b 45 08             	mov    0x8(%ebp),%eax
 80495f3:	8b 48 08             	mov    0x8(%eax),%ecx
 80495f6:	8b 55 08             	mov    0x8(%ebp),%edx
 80495f9:	8b 45 08             	mov    0x8(%ebp),%eax
 80495fc:	c7 44 24 08 03 00 00 	movl   $0x3,0x8(%esp)
 8049603:	00 
 8049604:	89 54 24 04          	mov    %edx,0x4(%esp)
 8049608:	89 04 24             	mov    %eax,(%esp)
 804960b:	ff d1                	call   *%ecx
 804960d:	c9                   	leave  
 804960e:	c3                   	ret    
 804960f:	90                   	nop

08049610 <_ZNKSt3tr114_Function_base8_M_emptyEv>:
 8049610:	55                   	push   %ebp
 8049611:	89 e5                	mov    %esp,%ebp
 8049613:	8b 45 08             	mov    0x8(%ebp),%eax
 8049616:	8b 40 08             	mov    0x8(%eax),%eax
 8049619:	85 c0                	test   %eax,%eax
 804961b:	0f 94 c0             	sete   %al
 804961e:	5d                   	pop    %ebp
 804961f:	c3                   	ret    

08049620 <_ZNSt5queueINSt3tr18functionIFvvEEESt5dequeIS3_SaIS3_EEED1Ev>:
 8049620:	55                   	push   %ebp
 8049621:	89 e5                	mov    %esp,%ebp
 8049623:	83 ec 18             	sub    $0x18,%esp
 8049626:	8b 45 08             	mov    0x8(%ebp),%eax
 8049629:	89 04 24             	mov    %eax,(%esp)
 804962c:	e8 71 09 00 00       	call   8049fa2 <_ZNSt5dequeINSt3tr18functionIFvvEEESaIS3_EED1Ev>
 8049631:	c9                   	leave  
 8049632:	c3                   	ret    
 8049633:	90                   	nop

08049634 <_ZN14MirrorRunnableC1Ev>:
 8049634:	55                   	push   %ebp
 8049635:	89 e5                	mov    %esp,%ebp
 8049637:	53                   	push   %ebx
 8049638:	83 ec 44             	sub    $0x44,%esp
 804963b:	8b 45 08             	mov    0x8(%ebp),%eax
 804963e:	89 04 24             	mov    %eax,(%esp)
 8049641:	e8 1a f9 ff ff       	call   8048f60 <_ZN4Poco8RunnableC2Ev@plt>
 8049646:	8b 45 08             	mov    0x8(%ebp),%eax
 8049649:	c7 00 b0 d1 04 08    	movl   $0x804d1b0,(%eax)
 804964f:	8d 45 d0             	lea    -0x30(%ebp),%eax
 8049652:	89 04 24             	mov    %eax,(%esp)
 8049655:	e8 34 09 00 00       	call   8049f8e <_ZNSt5dequeINSt3tr18functionIFvvEEESaIS3_EEC1Ev>
 804965a:	8b 45 08             	mov    0x8(%ebp),%eax
 804965d:	8d 50 04             	lea    0x4(%eax),%edx
 8049660:	8d 45 d0             	lea    -0x30(%ebp),%eax
 8049663:	89 44 24 04          	mov    %eax,0x4(%esp)
 8049667:	89 14 24             	mov    %edx,(%esp)
 804966a:	e8 b5 09 00 00       	call   804a024 <_ZNSt5queueINSt3tr18functionIFvvEEESt5dequeIS3_SaIS3_EEEC1ERKS6_>
 804966f:	8d 45 d0             	lea    -0x30(%ebp),%eax
 8049672:	89 04 24             	mov    %eax,(%esp)
 8049675:	e8 28 09 00 00       	call   8049fa2 <_ZNSt5dequeINSt3tr18functionIFvvEEESaIS3_EED1Ev>
 804967a:	8b 45 08             	mov    0x8(%ebp),%eax
 804967d:	83 c0 2c             	add    $0x2c,%eax
 8049680:	c7 44 24 04 01 00 00 	movl   $0x1,0x4(%esp)
 8049687:	00 
 8049688:	89 04 24             	mov    %eax,(%esp)
 804968b:	e8 e0 f8 ff ff       	call   8048f70 <_ZN4Poco5EventC1Eb@plt>
 8049690:	8b 45 08             	mov    0x8(%ebp),%eax
 8049693:	c6 40 78 01          	movb   $0x1,0x78(%eax)
 8049697:	83 c4 44             	add    $0x44,%esp
 804969a:	5b                   	pop    %ebx
 804969b:	5d                   	pop    %ebp
 804969c:	c3                   	ret    
 804969d:	89 c3                	mov    %eax,%ebx
 804969f:	8d 45 d0             	lea    -0x30(%ebp),%eax
 80496a2:	89 04 24             	mov    %eax,(%esp)
 80496a5:	e8 f8 08 00 00       	call   8049fa2 <_ZNSt5dequeINSt3tr18functionIFvvEEESaIS3_EED1Ev>
 80496aa:	eb 14                	jmp    80496c0 <_ZN14MirrorRunnableC1Ev+0x8c>
 80496ac:	89 c3                	mov    %eax,%ebx
 80496ae:	8b 45 08             	mov    0x8(%ebp),%eax
 80496b1:	83 c0 04             	add    $0x4,%eax
 80496b4:	89 04 24             	mov    %eax,(%esp)
 80496b7:	e8 64 ff ff ff       	call   8049620 <_ZNSt5queueINSt3tr18functionIFvvEEESt5dequeIS3_SaIS3_EEED1Ev>
 80496bc:	eb 02                	jmp    80496c0 <_ZN14MirrorRunnableC1Ev+0x8c>
 80496be:	89 c3                	mov    %eax,%ebx
 80496c0:	8b 45 08             	mov    0x8(%ebp),%eax
 80496c3:	89 04 24             	mov    %eax,(%esp)
 80496c6:	e8 85 f8 ff ff       	call   8048f50 <_ZN4Poco8RunnableD2Ev@plt>
 80496cb:	89 d8                	mov    %ebx,%eax
 80496cd:	89 04 24             	mov    %eax,(%esp)
 80496d0:	e8 3b fa ff ff       	call   8049110 <_Unwind_Resume@plt>
 80496d5:	90                   	nop

080496d6 <_ZN14MirrorRunnableD1Ev>:
 80496d6:	55                   	push   %ebp
 80496d7:	89 e5                	mov    %esp,%ebp
 80496d9:	53                   	push   %ebx
 80496da:	83 ec 14             	sub    $0x14,%esp
 80496dd:	8b 45 08             	mov    0x8(%ebp),%eax
 80496e0:	c7 00 b0 d1 04 08    	movl   $0x804d1b0,(%eax)
 80496e6:	8b 45 08             	mov    0x8(%ebp),%eax
 80496e9:	83 c0 2c             	add    $0x2c,%eax
 80496ec:	89 04 24             	mov    %eax,(%esp)
 80496ef:	e8 5c f9 ff ff       	call   8049050 <_ZN4Poco5EventD1Ev@plt>
 80496f4:	8b 45 08             	mov    0x8(%ebp),%eax
 80496f7:	83 c0 04             	add    $0x4,%eax
 80496fa:	89 04 24             	mov    %eax,(%esp)
 80496fd:	e8 1e ff ff ff       	call   8049620 <_ZNSt5queueINSt3tr18functionIFvvEEESt5dequeIS3_SaIS3_EEED1Ev>
 8049702:	8b 45 08             	mov    0x8(%ebp),%eax
 8049705:	89 04 24             	mov    %eax,(%esp)
 8049708:	e8 43 f8 ff ff       	call   8048f50 <_ZN4Poco8RunnableD2Ev@plt>
 804970d:	b8 00 00 00 00       	mov    $0x0,%eax
 8049712:	83 e0 01             	and    $0x1,%eax
 8049715:	84 c0                	test   %al,%al
 8049717:	74 36                	je     804974f <_ZN14MirrorRunnableD1Ev+0x79>
 8049719:	8b 45 08             	mov    0x8(%ebp),%eax
 804971c:	89 04 24             	mov    %eax,(%esp)
 804971f:	e8 8c f8 ff ff       	call   8048fb0 <_ZdlPv@plt>
 8049724:	eb 29                	jmp    804974f <_ZN14MirrorRunnableD1Ev+0x79>
 8049726:	89 c3                	mov    %eax,%ebx
 8049728:	8b 45 08             	mov    0x8(%ebp),%eax
 804972b:	83 c0 04             	add    $0x4,%eax
 804972e:	89 04 24             	mov    %eax,(%esp)
 8049731:	e8 ea fe ff ff       	call   8049620 <_ZNSt5queueINSt3tr18functionIFvvEEESt5dequeIS3_SaIS3_EEED1Ev>
 8049736:	eb 02                	jmp    804973a <_ZN14MirrorRunnableD1Ev+0x64>
 8049738:	89 c3                	mov    %eax,%ebx
 804973a:	8b 45 08             	mov    0x8(%ebp),%eax
 804973d:	89 04 24             	mov    %eax,(%esp)
 8049740:	e8 0b f8 ff ff       	call   8048f50 <_ZN4Poco8RunnableD2Ev@plt>
 8049745:	89 d8                	mov    %ebx,%eax
 8049747:	89 04 24             	mov    %eax,(%esp)
 804974a:	e8 c1 f9 ff ff       	call   8049110 <_Unwind_Resume@plt>
 804974f:	83 c4 14             	add    $0x14,%esp
 8049752:	5b                   	pop    %ebx
 8049753:	5d                   	pop    %ebp
 8049754:	c3                   	ret    
 8049755:	90                   	nop

08049756 <_ZN14MirrorRunnableD0Ev>:
 8049756:	55                   	push   %ebp
 8049757:	89 e5                	mov    %esp,%ebp
 8049759:	83 ec 18             	sub    $0x18,%esp
 804975c:	8b 45 08             	mov    0x8(%ebp),%eax
 804975f:	89 04 24             	mov    %eax,(%esp)
 8049762:	e8 6f ff ff ff       	call   80496d6 <_ZN14MirrorRunnableD1Ev>
 8049767:	8b 45 08             	mov    0x8(%ebp),%eax
 804976a:	89 04 24             	mov    %eax,(%esp)
 804976d:	e8 3e f8 ff ff       	call   8048fb0 <_ZdlPv@plt>
 8049772:	c9                   	leave  
 8049773:	c3                   	ret    

08049774 <_ZN14MirrorRunnable4stopEv>:
 8049774:	55                   	push   %ebp
 8049775:	89 e5                	mov    %esp,%ebp
 8049777:	83 ec 18             	sub    $0x18,%esp
 804977a:	8b 45 08             	mov    0x8(%ebp),%eax
 804977d:	c6 40 78 00          	movb   $0x0,0x78(%eax)
 8049781:	8b 45 08             	mov    0x8(%ebp),%eax
 8049784:	83 c0 2c             	add    $0x2c,%eax
 8049787:	89 04 24             	mov    %eax,(%esp)
 804978a:	e8 d3 fd ff ff       	call   8049562 <_ZN4Poco5Event3setEv>
 804978f:	c9                   	leave  
 8049790:	c3                   	ret    
 8049791:	90                   	nop

08049792 <_ZNSt3tr18functionIFvvEED1Ev>:
 8049792:	55                   	push   %ebp
 8049793:	89 e5                	mov    %esp,%ebp
 8049795:	83 ec 18             	sub    $0x18,%esp
 8049798:	8b 45 08             	mov    0x8(%ebp),%eax
 804979b:	89 04 24             	mov    %eax,(%esp)
 804979e:	e8 3d fe ff ff       	call   80495e0 <_ZNSt3tr114_Function_baseD1Ev>
 80497a3:	c9                   	leave  
 80497a4:	c3                   	ret    
 80497a5:	90                   	nop

080497a6 <_ZN14MirrorRunnable3runEv>:
 80497a6:	55                   	push   %ebp
 80497a7:	89 e5                	mov    %esp,%ebp
 80497a9:	53                   	push   %ebx
 80497aa:	83 ec 44             	sub    $0x44,%esp
 80497ad:	8b 45 08             	mov    0x8(%ebp),%eax
 80497b0:	89 45 d4             	mov    %eax,-0x2c(%ebp)
 80497b3:	65 a1 14 00 00 00    	mov    %gs:0x14,%eax
 80497b9:	89 45 f4             	mov    %eax,-0xc(%ebp)
 80497bc:	31 c0                	xor    %eax,%eax
 80497be:	8b 45 d4             	mov    -0x2c(%ebp),%eax
 80497c1:	83 c0 2c             	add    $0x2c,%eax
 80497c4:	89 04 24             	mov    %eax,(%esp)
 80497c7:	e8 aa fd ff ff       	call   8049576 <_ZN4Poco5Event4waitEv>
 80497cc:	8b 45 d4             	mov    -0x2c(%ebp),%eax
 80497cf:	0f b6 40 78          	movzbl 0x78(%eax),%eax
 80497d3:	83 f0 01             	xor    $0x1,%eax
 80497d6:	84 c0                	test   %al,%al
 80497d8:	74 45                	je     804981f <_ZN14MirrorRunnable3runEv+0x79>
 80497da:	eb 5b                	jmp    8049837 <_ZN14MirrorRunnable3runEv+0x91>
 80497dc:	8b 45 d4             	mov    -0x2c(%ebp),%eax
 80497df:	83 c0 04             	add    $0x4,%eax
 80497e2:	89 04 24             	mov    %eax,(%esp)
 80497e5:	e8 68 08 00 00       	call   804a052 <_ZNSt5queueINSt3tr18functionIFvvEEESt5dequeIS3_SaIS3_EEE5frontEv>
 80497ea:	89 44 24 04          	mov    %eax,0x4(%esp)
 80497ee:	8d 45 e4             	lea    -0x1c(%ebp),%eax
 80497f1:	89 04 24             	mov    %eax,(%esp)
 80497f4:	e8 73 08 00 00       	call   804a06c <_ZNSt3tr18functionIFvvEEC1ERKS2_>
 80497f9:	8d 45 e4             	lea    -0x1c(%ebp),%eax
 80497fc:	89 04 24             	mov    %eax,(%esp)
 80497ff:	e8 5e 09 00 00       	call   804a162 <_ZNKSt3tr18functionIFvvEEclEv>
 8049804:	8b 45 d4             	mov    -0x2c(%ebp),%eax
 8049807:	83 c0 04             	add    $0x4,%eax
 804980a:	89 04 24             	mov    %eax,(%esp)
 804980d:	e8 b0 09 00 00       	call   804a1c2 <_ZNSt5queueINSt3tr18functionIFvvEEESt5dequeIS3_SaIS3_EEE3popEv>
 8049812:	8d 45 e4             	lea    -0x1c(%ebp),%eax
 8049815:	89 04 24             	mov    %eax,(%esp)
 8049818:	e8 75 ff ff ff       	call   8049792 <_ZNSt3tr18functionIFvvEED1Ev>
 804981d:	eb 01                	jmp    8049820 <_ZN14MirrorRunnable3runEv+0x7a>
 804981f:	90                   	nop
 8049820:	8b 45 d4             	mov    -0x2c(%ebp),%eax
 8049823:	83 c0 04             	add    $0x4,%eax
 8049826:	89 04 24             	mov    %eax,(%esp)
 8049829:	e8 10 08 00 00       	call   804a03e <_ZNKSt5queueINSt3tr18functionIFvvEEESt5dequeIS3_SaIS3_EEE5emptyEv>
 804982e:	83 f0 01             	xor    $0x1,%eax
 8049831:	84 c0                	test   %al,%al
 8049833:	75 a7                	jne    80497dc <_ZN14MirrorRunnable3runEv+0x36>
 8049835:	eb 87                	jmp    80497be <_ZN14MirrorRunnable3runEv+0x18>
 8049837:	8b 45 f4             	mov    -0xc(%ebp),%eax
 804983a:	65 33 05 14 00 00 00 	xor    %gs:0x14,%eax
 8049841:	74 1e                	je     8049861 <_ZN14MirrorRunnable3runEv+0xbb>
 8049843:	eb 17                	jmp    804985c <_ZN14MirrorRunnable3runEv+0xb6>
 8049845:	89 c3                	mov    %eax,%ebx
 8049847:	8d 45 e4             	lea    -0x1c(%ebp),%eax
 804984a:	89 04 24             	mov    %eax,(%esp)
 804984d:	e8 40 ff ff ff       	call   8049792 <_ZNSt3tr18functionIFvvEED1Ev>
 8049852:	89 d8                	mov    %ebx,%eax
 8049854:	89 04 24             	mov    %eax,(%esp)
 8049857:	e8 b4 f8 ff ff       	call   8049110 <_Unwind_Resume@plt>
 804985c:	e8 af f7 ff ff       	call   8049010 <__stack_chk_fail@plt>
 8049861:	83 c4 44             	add    $0x44,%esp
 8049864:	5b                   	pop    %ebx
 8049865:	5d                   	pop    %ebp
 8049866:	c3                   	ret    
 8049867:	90                   	nop

08049868 <_ZN14MirrorRunnable4postENSt3tr18functionIFvvEEE>:
 8049868:	55                   	push   %ebp
 8049869:	89 e5                	mov    %esp,%ebp
 804986b:	83 ec 18             	sub    $0x18,%esp
 804986e:	8b 45 08             	mov    0x8(%ebp),%eax
 8049871:	8d 50 04             	lea    0x4(%eax),%edx
 8049874:	8b 45 0c             	mov    0xc(%ebp),%eax
 8049877:	89 44 24 04          	mov    %eax,0x4(%esp)
 804987b:	89 14 24             	mov    %edx,(%esp)
 804987e:	e8 53 09 00 00       	call   804a1d6 <_ZNSt5queueINSt3tr18functionIFvvEEESt5dequeIS3_SaIS3_EEE4pushERKS3_>
 8049883:	8b 45 08             	mov    0x8(%ebp),%eax
 8049886:	83 c0 2c             	add    $0x2c,%eax
 8049889:	89 04 24             	mov    %eax,(%esp)
 804988c:	e8 d1 fc ff ff       	call   8049562 <_ZN4Poco5Event3setEv>
 8049891:	c9                   	leave  
 8049892:	c3                   	ret    
 8049893:	90                   	nop

08049894 <_ZN12MirrorThreadC1Ev>:
 8049894:	55                   	push   %ebp
 8049895:	89 e5                	mov    %esp,%ebp
 8049897:	53                   	push   %ebx
 8049898:	83 ec 14             	sub    $0x14,%esp
 804989b:	8b 45 08             	mov    0x8(%ebp),%eax
 804989e:	89 04 24             	mov    %eax,(%esp)
 80498a1:	e8 9a f7 ff ff       	call   8049040 <_ZN4Poco6ThreadC2Ev@plt>
 80498a6:	8b 45 08             	mov    0x8(%ebp),%eax
 80498a9:	83 e8 80             	sub    $0xffffff80,%eax
 80498ac:	89 04 24             	mov    %eax,(%esp)
 80498af:	e8 80 fd ff ff       	call   8049634 <_ZN14MirrorRunnableC1Ev>
 80498b4:	eb 17                	jmp    80498cd <_ZN12MirrorThreadC1Ev+0x39>
 80498b6:	89 c3                	mov    %eax,%ebx
 80498b8:	8b 45 08             	mov    0x8(%ebp),%eax
 80498bb:	89 04 24             	mov    %eax,(%esp)
 80498be:	e8 7d f8 ff ff       	call   8049140 <_ZN4Poco6ThreadD2Ev@plt>
 80498c3:	89 d8                	mov    %ebx,%eax
 80498c5:	89 04 24             	mov    %eax,(%esp)
 80498c8:	e8 43 f8 ff ff       	call   8049110 <_Unwind_Resume@plt>
 80498cd:	83 c4 14             	add    $0x14,%esp
 80498d0:	5b                   	pop    %ebx
 80498d1:	5d                   	pop    %ebp
 80498d2:	c3                   	ret    
 80498d3:	90                   	nop

080498d4 <_ZN12MirrorThreadD1Ev>:
 80498d4:	55                   	push   %ebp
 80498d5:	89 e5                	mov    %esp,%ebp
 80498d7:	53                   	push   %ebx
 80498d8:	83 ec 14             	sub    $0x14,%esp
 80498db:	8b 45 08             	mov    0x8(%ebp),%eax
 80498de:	83 e8 80             	sub    $0xffffff80,%eax
 80498e1:	89 04 24             	mov    %eax,(%esp)
 80498e4:	e8 ed fd ff ff       	call   80496d6 <_ZN14MirrorRunnableD1Ev>
 80498e9:	8b 45 08             	mov    0x8(%ebp),%eax
 80498ec:	89 04 24             	mov    %eax,(%esp)
 80498ef:	e8 4c f8 ff ff       	call   8049140 <_ZN4Poco6ThreadD2Ev@plt>
 80498f4:	83 c4 14             	add    $0x14,%esp
 80498f7:	5b                   	pop    %ebx
 80498f8:	5d                   	pop    %ebp
 80498f9:	c3                   	ret    
 80498fa:	89 c3                	mov    %eax,%ebx
 80498fc:	8b 45 08             	mov    0x8(%ebp),%eax
 80498ff:	89 04 24             	mov    %eax,(%esp)
 8049902:	e8 39 f8 ff ff       	call   8049140 <_ZN4Poco6ThreadD2Ev@plt>
 8049907:	89 d8                	mov    %ebx,%eax
 8049909:	89 04 24             	mov    %eax,(%esp)
 804990c:	e8 ff f7 ff ff       	call   8049110 <_Unwind_Resume@plt>
 8049911:	90                   	nop

08049912 <_ZN12MirrorThread7startOnEv>:
 8049912:	55                   	push   %ebp
 8049913:	89 e5                	mov    %esp,%ebp
 8049915:	83 ec 18             	sub    $0x18,%esp
 8049918:	8b 45 08             	mov    0x8(%ebp),%eax
 804991b:	8d 90 80 00 00 00    	lea    0x80(%eax),%edx
 8049921:	8b 45 08             	mov    0x8(%ebp),%eax
 8049924:	89 54 24 04          	mov    %edx,0x4(%esp)
 8049928:	89 04 24             	mov    %eax,(%esp)
 804992b:	e8 e0 f5 ff ff       	call   8048f10 <_ZN4Poco6Thread5startERNS_8RunnableE@plt>
 8049930:	c9                   	leave  
 8049931:	c3                   	ret    

08049932 <_ZN12MirrorThread6stopOnEv>:
 8049932:	55                   	push   %ebp
 8049933:	89 e5                	mov    %esp,%ebp
 8049935:	83 ec 18             	sub    $0x18,%esp
 8049938:	8b 45 08             	mov    0x8(%ebp),%eax
 804993b:	83 e8 80             	sub    $0xffffff80,%eax
 804993e:	89 04 24             	mov    %eax,(%esp)
 8049941:	e8 2e fe ff ff       	call   8049774 <_ZN14MirrorRunnable4stopEv>
 8049946:	8b 45 08             	mov    0x8(%ebp),%eax
 8049949:	89 04 24             	mov    %eax,(%esp)
 804994c:	e8 9f f7 ff ff       	call   80490f0 <_ZN4Poco6Thread4joinEv@plt>
 8049951:	c9                   	leave  
 8049952:	c3                   	ret    
 8049953:	90                   	nop

08049954 <_ZN12MirrorThread4pushENSt3tr18functionIFvvEEE>:
 8049954:	55                   	push   %ebp
 8049955:	89 e5                	mov    %esp,%ebp
 8049957:	53                   	push   %ebx
 8049958:	83 ec 44             	sub    $0x44,%esp
 804995b:	8b 45 08             	mov    0x8(%ebp),%eax
 804995e:	89 45 d4             	mov    %eax,-0x2c(%ebp)
 8049961:	8b 45 0c             	mov    0xc(%ebp),%eax
 8049964:	89 45 d0             	mov    %eax,-0x30(%ebp)
 8049967:	65 a1 14 00 00 00    	mov    %gs:0x14,%eax
 804996d:	89 45 f4             	mov    %eax,-0xc(%ebp)
 8049970:	31 c0                	xor    %eax,%eax
 8049972:	c7 04 24 0a 00 00 00 	movl   $0xa,(%esp)
 8049979:	e8 0c fc ff ff       	call   804958a <_ZN4Poco6Thread5sleepEl>
 804997e:	8b 45 d0             	mov    -0x30(%ebp),%eax
 8049981:	89 44 24 04          	mov    %eax,0x4(%esp)
 8049985:	8d 45 e4             	lea    -0x1c(%ebp),%eax
 8049988:	89 04 24             	mov    %eax,(%esp)
 804998b:	e8 dc 06 00 00       	call   804a06c <_ZNSt3tr18functionIFvvEEC1ERKS2_>
 8049990:	8b 45 d4             	mov    -0x2c(%ebp),%eax
 8049993:	8d 90 80 00 00 00    	lea    0x80(%eax),%edx
 8049999:	8d 45 e4             	lea    -0x1c(%ebp),%eax
 804999c:	89 44 24 04          	mov    %eax,0x4(%esp)
 80499a0:	89 14 24             	mov    %edx,(%esp)
 80499a3:	e8 c0 fe ff ff       	call   8049868 <_ZN14MirrorRunnable4postENSt3tr18functionIFvvEEE>
 80499a8:	8d 45 e4             	lea    -0x1c(%ebp),%eax
 80499ab:	89 04 24             	mov    %eax,(%esp)
 80499ae:	e8 df fd ff ff       	call   8049792 <_ZNSt3tr18functionIFvvEED1Ev>
 80499b3:	8b 45 f4             	mov    -0xc(%ebp),%eax
 80499b6:	65 33 05 14 00 00 00 	xor    %gs:0x14,%eax
 80499bd:	74 1e                	je     80499dd <_ZN12MirrorThread4pushENSt3tr18functionIFvvEEE+0x89>
 80499bf:	eb 17                	jmp    80499d8 <_ZN12MirrorThread4pushENSt3tr18functionIFvvEEE+0x84>
 80499c1:	89 c3                	mov    %eax,%ebx
 80499c3:	8d 45 e4             	lea    -0x1c(%ebp),%eax
 80499c6:	89 04 24             	mov    %eax,(%esp)
 80499c9:	e8 c4 fd ff ff       	call   8049792 <_ZNSt3tr18functionIFvvEED1Ev>
 80499ce:	89 d8                	mov    %ebx,%eax
 80499d0:	89 04 24             	mov    %eax,(%esp)
 80499d3:	e8 38 f7 ff ff       	call   8049110 <_Unwind_Resume@plt>
 80499d8:	e8 33 f6 ff ff       	call   8049010 <__stack_chk_fail@plt>
 80499dd:	83 c4 44             	add    $0x44,%esp
 80499e0:	5b                   	pop    %ebx
 80499e1:	5d                   	pop    %ebp
 80499e2:	c3                   	ret    
 80499e3:	90                   	nop

080499e4 <_ZN9MirrorImpC1Ev>:
 80499e4:	55                   	push   %ebp
 80499e5:	89 e5                	mov    %esp,%ebp
 80499e7:	5d                   	pop    %ebp
 80499e8:	c3                   	ret    
 80499e9:	90                   	nop

080499ea <_ZN9MirrorImpD1Ev>:
 80499ea:	55                   	push   %ebp
 80499eb:	89 e5                	mov    %esp,%ebp
 80499ed:	5d                   	pop    %ebp
 80499ee:	c3                   	ret    
 80499ef:	90                   	nop

080499f0 <_ZN9MirrorImp5func1Ei>:
 80499f0:	55                   	push   %ebp
 80499f1:	89 e5                	mov    %esp,%ebp
 80499f3:	83 ec 18             	sub    $0x18,%esp
 80499f6:	c7 44 24 04 57 d1 04 	movl   $0x804d157,0x4(%esp)
 80499fd:	08 
 80499fe:	c7 04 24 40 21 05 08 	movl   $0x8052140,(%esp)
 8049a05:	e8 d6 f5 ff ff       	call   8048fe0 <_ZStlsISt11char_traitsIcEERSt13basic_ostreamIcT_ES5_PKc@plt>
 8049a0a:	8b 55 0c             	mov    0xc(%ebp),%edx
 8049a0d:	89 54 24 04          	mov    %edx,0x4(%esp)
 8049a11:	89 04 24             	mov    %eax,(%esp)
 8049a14:	e8 c7 f6 ff ff       	call   80490e0 <_ZNSolsEi@plt>
 8049a19:	c7 44 24 04 20 8f 04 	movl   $0x8048f20,0x4(%esp)
 8049a20:	08 
 8049a21:	89 04 24             	mov    %eax,(%esp)
 8049a24:	e8 c7 f5 ff ff       	call   8048ff0 <_ZNSolsEPFRSoS_E@plt>
 8049a29:	c9                   	leave  
 8049a2a:	c3                   	ret    
 8049a2b:	90                   	nop

08049a2c <_ZN9MirrorImp5func2ESt6vectorIiSaIiEE>:
 8049a2c:	55                   	push   %ebp
 8049a2d:	89 e5                	mov    %esp,%ebp
 8049a2f:	83 ec 28             	sub    $0x28,%esp
 8049a32:	c7 44 24 04 5e d1 04 	movl   $0x804d15e,0x4(%esp)
 8049a39:	08 
 8049a3a:	c7 04 24 40 21 05 08 	movl   $0x8052140,(%esp)
 8049a41:	e8 9a f5 ff ff       	call   8048fe0 <_ZStlsISt11char_traitsIcEERSt13basic_ostreamIcT_ES5_PKc@plt>
 8049a46:	c7 44 24 04 20 8f 04 	movl   $0x8048f20,0x4(%esp)
 8049a4d:	08 
 8049a4e:	89 04 24             	mov    %eax,(%esp)
 8049a51:	e8 9a f5 ff ff       	call   8048ff0 <_ZNSolsEPFRSoS_E@plt>
 8049a56:	8d 45 ec             	lea    -0x14(%ebp),%eax
 8049a59:	8b 55 0c             	mov    0xc(%ebp),%edx
 8049a5c:	89 54 24 04          	mov    %edx,0x4(%esp)
 8049a60:	89 04 24             	mov    %eax,(%esp)
 8049a63:	e8 88 07 00 00       	call   804a1f0 <_ZNSt6vectorIiSaIiEE5beginEv>
 8049a68:	83 ec 04             	sub    $0x4,%esp
 8049a6b:	eb 4a                	jmp    8049ab7 <_ZN9MirrorImp5func2ESt6vectorIiSaIiEE+0x8b>
 8049a6d:	8d 45 ec             	lea    -0x14(%ebp),%eax
 8049a70:	89 04 24             	mov    %eax,(%esp)
 8049a73:	e8 16 08 00 00       	call   804a28e <_ZNK9__gnu_cxx17__normal_iteratorIPiSt6vectorIiSaIiEEEdeEv>
 8049a78:	8b 00                	mov    (%eax),%eax
 8049a7a:	89 44 24 04          	mov    %eax,0x4(%esp)
 8049a7e:	c7 04 24 40 21 05 08 	movl   $0x8052140,(%esp)
 8049a85:	e8 56 f6 ff ff       	call   80490e0 <_ZNSolsEi@plt>
 8049a8a:	c7 44 24 04 20 8f 04 	movl   $0x8048f20,0x4(%esp)
 8049a91:	08 
 8049a92:	89 04 24             	mov    %eax,(%esp)
 8049a95:	e8 56 f5 ff ff       	call   8048ff0 <_ZNSolsEPFRSoS_E@plt>
 8049a9a:	8d 45 f4             	lea    -0xc(%ebp),%eax
 8049a9d:	c7 44 24 08 00 00 00 	movl   $0x0,0x8(%esp)
 8049aa4:	00 
 8049aa5:	8d 55 ec             	lea    -0x14(%ebp),%edx
 8049aa8:	89 54 24 04          	mov    %edx,0x4(%esp)
 8049aac:	89 04 24             	mov    %eax,(%esp)
 8049aaf:	e8 aa 07 00 00       	call   804a25e <_ZN9__gnu_cxx17__normal_iteratorIPiSt6vectorIiSaIiEEEppEi>
 8049ab4:	83 ec 04             	sub    $0x4,%esp
 8049ab7:	8d 45 f0             	lea    -0x10(%ebp),%eax
 8049aba:	8b 55 0c             	mov    0xc(%ebp),%edx
 8049abd:	89 54 24 04          	mov    %edx,0x4(%esp)
 8049ac1:	89 04 24             	mov    %eax,(%esp)
 8049ac4:	e8 47 07 00 00       	call   804a210 <_ZNSt6vectorIiSaIiEE3endEv>
 8049ac9:	83 ec 04             	sub    $0x4,%esp
 8049acc:	8d 45 f0             	lea    -0x10(%ebp),%eax
 8049acf:	89 44 24 04          	mov    %eax,0x4(%esp)
 8049ad3:	8d 45 ec             	lea    -0x14(%ebp),%eax
 8049ad6:	89 04 24             	mov    %eax,(%esp)
 8049ad9:	e8 54 07 00 00       	call   804a232 <_ZN9__gnu_cxxneIPiSt6vectorIiSaIiEEEEbRKNS_17__normal_iteratorIT_T0_EESA_>
 8049ade:	84 c0                	test   %al,%al
 8049ae0:	75 8b                	jne    8049a6d <_ZN9MirrorImp5func2ESt6vectorIiSaIiEE+0x41>
 8049ae2:	c9                   	leave  
 8049ae3:	c3                   	ret    

08049ae4 <_ZN11MirrorProxyC1Ev>:
 8049ae4:	55                   	push   %ebp
 8049ae5:	89 e5                	mov    %esp,%ebp
 8049ae7:	56                   	push   %esi
 8049ae8:	53                   	push   %ebx
 8049ae9:	83 ec 10             	sub    $0x10,%esp
 8049aec:	c7 04 24 fc 00 00 00 	movl   $0xfc,(%esp)
 8049af3:	e8 b8 f3 ff ff       	call   8048eb0 <_Znwj@plt>
 8049af8:	89 c3                	mov    %eax,%ebx
 8049afa:	89 1c 24             	mov    %ebx,(%esp)
 8049afd:	e8 92 fd ff ff       	call   8049894 <_ZN12MirrorThreadC1Ev>
 8049b02:	8b 45 08             	mov    0x8(%ebp),%eax
 8049b05:	89 18                	mov    %ebx,(%eax)
 8049b07:	c7 04 24 01 00 00 00 	movl   $0x1,(%esp)
 8049b0e:	e8 9d f3 ff ff       	call   8048eb0 <_Znwj@plt>
 8049b13:	89 c3                	mov    %eax,%ebx
 8049b15:	89 1c 24             	mov    %ebx,(%esp)
 8049b18:	e8 c7 fe ff ff       	call   80499e4 <_ZN9MirrorImpC1Ev>
 8049b1d:	8b 45 08             	mov    0x8(%ebp),%eax
 8049b20:	89 58 04             	mov    %ebx,0x4(%eax)
 8049b23:	8b 45 08             	mov    0x8(%ebp),%eax
 8049b26:	8b 00                	mov    (%eax),%eax
 8049b28:	89 04 24             	mov    %eax,(%esp)
 8049b2b:	e8 e2 fd ff ff       	call   8049912 <_ZN12MirrorThread7startOnEv>
 8049b30:	83 c4 10             	add    $0x10,%esp
 8049b33:	5b                   	pop    %ebx
 8049b34:	5e                   	pop    %esi
 8049b35:	5d                   	pop    %ebp
 8049b36:	c3                   	ret    
 8049b37:	89 c6                	mov    %eax,%esi
 8049b39:	89 1c 24             	mov    %ebx,(%esp)
 8049b3c:	e8 6f f4 ff ff       	call   8048fb0 <_ZdlPv@plt>
 8049b41:	89 f0                	mov    %esi,%eax
 8049b43:	89 04 24             	mov    %eax,(%esp)
 8049b46:	e8 c5 f5 ff ff       	call   8049110 <_Unwind_Resume@plt>
 8049b4b:	90                   	nop

08049b4c <_ZN11MirrorProxyD1Ev>:
 8049b4c:	55                   	push   %ebp
 8049b4d:	89 e5                	mov    %esp,%ebp
 8049b4f:	53                   	push   %ebx
 8049b50:	83 ec 14             	sub    $0x14,%esp
 8049b53:	8b 45 08             	mov    0x8(%ebp),%eax
 8049b56:	8b 00                	mov    (%eax),%eax
 8049b58:	89 04 24             	mov    %eax,(%esp)
 8049b5b:	e8 d2 fd ff ff       	call   8049932 <_ZN12MirrorThread6stopOnEv>
 8049b60:	8b 45 08             	mov    0x8(%ebp),%eax
 8049b63:	8b 18                	mov    (%eax),%ebx
 8049b65:	85 db                	test   %ebx,%ebx
 8049b67:	74 10                	je     8049b79 <_ZN11MirrorProxyD1Ev+0x2d>
 8049b69:	89 1c 24             	mov    %ebx,(%esp)
 8049b6c:	e8 63 fd ff ff       	call   80498d4 <_ZN12MirrorThreadD1Ev>
 8049b71:	89 1c 24             	mov    %ebx,(%esp)
 8049b74:	e8 37 f4 ff ff       	call   8048fb0 <_ZdlPv@plt>
 8049b79:	8b 45 08             	mov    0x8(%ebp),%eax
 8049b7c:	8b 58 04             	mov    0x4(%eax),%ebx
 8049b7f:	85 db                	test   %ebx,%ebx
 8049b81:	74 10                	je     8049b93 <_ZN11MirrorProxyD1Ev+0x47>
 8049b83:	89 1c 24             	mov    %ebx,(%esp)
 8049b86:	e8 5f fe ff ff       	call   80499ea <_ZN9MirrorImpD1Ev>
 8049b8b:	89 1c 24             	mov    %ebx,(%esp)
 8049b8e:	e8 1d f4 ff ff       	call   8048fb0 <_ZdlPv@plt>
 8049b93:	83 c4 14             	add    $0x14,%esp
 8049b96:	5b                   	pop    %ebx
 8049b97:	5d                   	pop    %ebp
 8049b98:	c3                   	ret    
 8049b99:	90                   	nop

08049b9a <_ZNSt3tr111_Tuple_implILi0EI9MirrorImpiEED1Ev>:
 8049b9a:	55                   	push   %ebp
 8049b9b:	89 e5                	mov    %esp,%ebp
 8049b9d:	83 ec 18             	sub    $0x18,%esp
 8049ba0:	8b 45 08             	mov    0x8(%ebp),%eax
 8049ba3:	83 c0 04             	add    $0x4,%eax
 8049ba6:	89 04 24             	mov    %eax,(%esp)
 8049ba9:	e8 3c fe ff ff       	call   80499ea <_ZN9MirrorImpD1Ev>
 8049bae:	c9                   	leave  
 8049baf:	c3                   	ret    

08049bb0 <_ZNSt3tr15tupleII9MirrorImpiEED1Ev>:
 8049bb0:	55                   	push   %ebp
 8049bb1:	89 e5                	mov    %esp,%ebp
 8049bb3:	83 ec 18             	sub    $0x18,%esp
 8049bb6:	8b 45 08             	mov    0x8(%ebp),%eax
 8049bb9:	89 04 24             	mov    %eax,(%esp)
 8049bbc:	e8 d9 ff ff ff       	call   8049b9a <_ZNSt3tr111_Tuple_implILi0EI9MirrorImpiEED1Ev>
 8049bc1:	c9                   	leave  
 8049bc2:	c3                   	ret    
 8049bc3:	90                   	nop

08049bc4 <_ZNSt3tr15_BindIFNS_7_Mem_fnIM9MirrorImpFviEEES2_iEED1Ev>:
 8049bc4:	55                   	push   %ebp
 8049bc5:	89 e5                	mov    %esp,%ebp
 8049bc7:	83 ec 18             	sub    $0x18,%esp
 8049bca:	8b 45 08             	mov    0x8(%ebp),%eax
 8049bcd:	83 c0 08             	add    $0x8,%eax
 8049bd0:	89 04 24             	mov    %eax,(%esp)
 8049bd3:	e8 d8 ff ff ff       	call   8049bb0 <_ZNSt3tr15tupleII9MirrorImpiEED1Ev>
 8049bd8:	c9                   	leave  
 8049bd9:	c3                   	ret    

08049bda <_ZNSt3tr15_BindIFNS_7_Mem_fnIM9MirrorImpFviEEES2_iEEC1ERKS7_>:
 8049bda:	55                   	push   %ebp
 8049bdb:	89 e5                	mov    %esp,%ebp
 8049bdd:	83 ec 18             	sub    $0x18,%esp
 8049be0:	8b 4d 08             	mov    0x8(%ebp),%ecx
 8049be3:	8b 45 0c             	mov    0xc(%ebp),%eax
 8049be6:	8b 50 04             	mov    0x4(%eax),%edx
 8049be9:	8b 00                	mov    (%eax),%eax
 8049beb:	89 01                	mov    %eax,(%ecx)
 8049bed:	89 51 04             	mov    %edx,0x4(%ecx)
 8049bf0:	8b 45 0c             	mov    0xc(%ebp),%eax
 8049bf3:	8d 50 08             	lea    0x8(%eax),%edx
 8049bf6:	8b 45 08             	mov    0x8(%ebp),%eax
 8049bf9:	83 c0 08             	add    $0x8,%eax
 8049bfc:	89 54 24 04          	mov    %edx,0x4(%esp)
 8049c00:	89 04 24             	mov    %eax,(%esp)
 8049c03:	e8 06 07 00 00       	call   804a30e <_ZNSt3tr15tupleII9MirrorImpiEEC1ERKS2_>
 8049c08:	c9                   	leave  
 8049c09:	c3                   	ret    

08049c0a <_ZN11MirrorProxy4fun1Ei>:
 8049c0a:	55                   	push   %ebp
 8049c0b:	89 e5                	mov    %esp,%ebp
 8049c0d:	56                   	push   %esi
 8049c0e:	53                   	push   %ebx
 8049c0f:	83 ec 70             	sub    $0x70,%esp
 8049c12:	8b 4d 08             	mov    0x8(%ebp),%ecx
 8049c15:	89 4d b4             	mov    %ecx,-0x4c(%ebp)
 8049c18:	65 a1 14 00 00 00    	mov    %gs:0x14,%eax
 8049c1e:	89 45 f4             	mov    %eax,-0xc(%ebp)
 8049c21:	31 c0                	xor    %eax,%eax
 8049c23:	b8 f0 99 04 08       	mov    $0x80499f0,%eax
 8049c28:	ba 00 00 00 00       	mov    $0x0,%edx
 8049c2d:	8d 4d c0             	lea    -0x40(%ebp),%ecx
 8049c30:	8b 5d 0c             	mov    0xc(%ebp),%ebx
 8049c33:	89 5c 24 10          	mov    %ebx,0x10(%esp)
 8049c37:	8d 5d d2             	lea    -0x2e(%ebp),%ebx
 8049c3a:	89 5c 24 0c          	mov    %ebx,0xc(%esp)
 8049c3e:	89 44 24 04          	mov    %eax,0x4(%esp)
 8049c42:	89 54 24 08          	mov    %edx,0x8(%esp)
 8049c46:	89 0c 24             	mov    %ecx,(%esp)
 8049c49:	e8 4a 06 00 00       	call   804a298 <_ZNSt3tr14bindIM9MirrorImpFviEIS1_iEEENS_5_BindIFNS_26_Maybe_wrap_member_pointerIT_E4typeEDpT0_EEES6_SA_>
 8049c4e:	83 ec 04             	sub    $0x4,%esp
 8049c51:	89 f0                	mov    %esi,%eax
 8049c53:	88 44 24 08          	mov    %al,0x8(%esp)
 8049c57:	8d 45 c0             	lea    -0x40(%ebp),%eax
 8049c5a:	89 44 24 04          	mov    %eax,0x4(%esp)
 8049c5e:	8d 45 d4             	lea    -0x2c(%ebp),%eax
 8049c61:	89 04 24             	mov    %eax,(%esp)
 8049c64:	e8 bf 06 00 00       	call   804a328 <_ZNSt3tr18functionIFvvEEC1INS_5_BindIFNS_7_Mem_fnIM9MirrorImpFviEEES6_iEEEEET_N9__gnu_cxx11__enable_ifIXntsrNS_11is_integralISC_EE5valueENS2_8_UselessEE6__typeE>
 8049c69:	8d 45 c0             	lea    -0x40(%ebp),%eax
 8049c6c:	89 04 24             	mov    %eax,(%esp)
 8049c6f:	e8 50 ff ff ff       	call   8049bc4 <_ZNSt3tr15_BindIFNS_7_Mem_fnIM9MirrorImpFviEEES2_iEED1Ev>
 8049c74:	8d 45 d2             	lea    -0x2e(%ebp),%eax
 8049c77:	89 04 24             	mov    %eax,(%esp)
 8049c7a:	e8 6b fd ff ff       	call   80499ea <_ZN9MirrorImpD1Ev>
 8049c7f:	c7 44 24 04 65 d1 04 	movl   $0x804d165,0x4(%esp)
 8049c86:	08 
 8049c87:	c7 04 24 40 21 05 08 	movl   $0x8052140,(%esp)
 8049c8e:	e8 4d f3 ff ff       	call   8048fe0 <_ZStlsISt11char_traitsIcEERSt13basic_ostreamIcT_ES5_PKc@plt>
 8049c93:	c7 44 24 04 10 00 00 	movl   $0x10,0x4(%esp)
 8049c9a:	00 
 8049c9b:	89 04 24             	mov    %eax,(%esp)
 8049c9e:	e8 cd f3 ff ff       	call   8049070 <_ZNSolsEj@plt>
 8049ca3:	c7 44 24 04 20 8f 04 	movl   $0x8048f20,0x4(%esp)
 8049caa:	08 
 8049cab:	89 04 24             	mov    %eax,(%esp)
 8049cae:	e8 3d f3 ff ff       	call   8048ff0 <_ZNSolsEPFRSoS_E@plt>
 8049cb3:	8d 45 d4             	lea    -0x2c(%ebp),%eax
 8049cb6:	89 44 24 04          	mov    %eax,0x4(%esp)
 8049cba:	8d 45 e4             	lea    -0x1c(%ebp),%eax
 8049cbd:	89 04 24             	mov    %eax,(%esp)
 8049cc0:	e8 a7 03 00 00       	call   804a06c <_ZNSt3tr18functionIFvvEEC1ERKS2_>
 8049cc5:	8b 45 b4             	mov    -0x4c(%ebp),%eax
 8049cc8:	8b 00                	mov    (%eax),%eax
 8049cca:	8d 55 e4             	lea    -0x1c(%ebp),%edx
 8049ccd:	89 54 24 04          	mov    %edx,0x4(%esp)
 8049cd1:	89 04 24             	mov    %eax,(%esp)
 8049cd4:	e8 7b fc ff ff       	call   8049954 <_ZN12MirrorThread4pushENSt3tr18functionIFvvEEE>
 8049cd9:	8d 45 e4             	lea    -0x1c(%ebp),%eax
 8049cdc:	89 04 24             	mov    %eax,(%esp)
 8049cdf:	e8 ae fa ff ff       	call   8049792 <_ZNSt3tr18functionIFvvEED1Ev>
 8049ce4:	8d 45 d4             	lea    -0x2c(%ebp),%eax
 8049ce7:	89 04 24             	mov    %eax,(%esp)
 8049cea:	e8 a3 fa ff ff       	call   8049792 <_ZNSt3tr18functionIFvvEED1Ev>
 8049cef:	8b 45 f4             	mov    -0xc(%ebp),%eax
 8049cf2:	65 33 05 14 00 00 00 	xor    %gs:0x14,%eax
 8049cf9:	74 53                	je     8049d4e <_ZN11MirrorProxy4fun1Ei+0x144>
 8049cfb:	eb 4c                	jmp    8049d49 <_ZN11MirrorProxy4fun1Ei+0x13f>
 8049cfd:	89 c3                	mov    %eax,%ebx
 8049cff:	8d 45 c0             	lea    -0x40(%ebp),%eax
 8049d02:	89 04 24             	mov    %eax,(%esp)
 8049d05:	e8 ba fe ff ff       	call   8049bc4 <_ZNSt3tr15_BindIFNS_7_Mem_fnIM9MirrorImpFviEEES2_iEED1Ev>
 8049d0a:	eb 02                	jmp    8049d0e <_ZN11MirrorProxy4fun1Ei+0x104>
 8049d0c:	89 c3                	mov    %eax,%ebx
 8049d0e:	8d 45 d2             	lea    -0x2e(%ebp),%eax
 8049d11:	89 04 24             	mov    %eax,(%esp)
 8049d14:	e8 d1 fc ff ff       	call   80499ea <_ZN9MirrorImpD1Ev>
 8049d19:	89 d8                	mov    %ebx,%eax
 8049d1b:	89 04 24             	mov    %eax,(%esp)
 8049d1e:	e8 ed f3 ff ff       	call   8049110 <_Unwind_Resume@plt>
 8049d23:	89 c3                	mov    %eax,%ebx
 8049d25:	8d 45 e4             	lea    -0x1c(%ebp),%eax
 8049d28:	89 04 24             	mov    %eax,(%esp)
 8049d2b:	e8 62 fa ff ff       	call   8049792 <_ZNSt3tr18functionIFvvEED1Ev>
 8049d30:	eb 02                	jmp    8049d34 <_ZN11MirrorProxy4fun1Ei+0x12a>
 8049d32:	89 c3                	mov    %eax,%ebx
 8049d34:	8d 45 d4             	lea    -0x2c(%ebp),%eax
 8049d37:	89 04 24             	mov    %eax,(%esp)
 8049d3a:	e8 53 fa ff ff       	call   8049792 <_ZNSt3tr18functionIFvvEED1Ev>
 8049d3f:	89 d8                	mov    %ebx,%eax
 8049d41:	89 04 24             	mov    %eax,(%esp)
 8049d44:	e8 c7 f3 ff ff       	call   8049110 <_Unwind_Resume@plt>
 8049d49:	e8 c2 f2 ff ff       	call   8049010 <__stack_chk_fail@plt>
 8049d4e:	8d 65 f8             	lea    -0x8(%ebp),%esp
 8049d51:	5b                   	pop    %ebx
 8049d52:	5e                   	pop    %esi
 8049d53:	5d                   	pop    %ebp
 8049d54:	c3                   	ret    
 8049d55:	90                   	nop

08049d56 <_ZNSt3tr111_Tuple_implILi1EISt6vectorIiSaIiEEEED1Ev>:
 8049d56:	55                   	push   %ebp
 8049d57:	89 e5                	mov    %esp,%ebp
 8049d59:	83 ec 18             	sub    $0x18,%esp
 8049d5c:	8b 45 08             	mov    0x8(%ebp),%eax
 8049d5f:	89 04 24             	mov    %eax,(%esp)
 8049d62:	e8 e3 06 00 00       	call   804a44a <_ZNSt6vectorIiSaIiEED1Ev>
 8049d67:	c9                   	leave  
 8049d68:	c3                   	ret    
 8049d69:	90                   	nop

08049d6a <_ZNSt3tr111_Tuple_implILi0EI9MirrorImpSt6vectorIiSaIiEEEED1Ev>:
 8049d6a:	55                   	push   %ebp
 8049d6b:	89 e5                	mov    %esp,%ebp
 8049d6d:	83 ec 18             	sub    $0x18,%esp
 8049d70:	8b 45 08             	mov    0x8(%ebp),%eax
 8049d73:	83 c0 0c             	add    $0xc,%eax
 8049d76:	89 04 24             	mov    %eax,(%esp)
 8049d79:	e8 6c fc ff ff       	call   80499ea <_ZN9MirrorImpD1Ev>
 8049d7e:	8b 45 08             	mov    0x8(%ebp),%eax
 8049d81:	89 04 24             	mov    %eax,(%esp)
 8049d84:	e8 cd ff ff ff       	call   8049d56 <_ZNSt3tr111_Tuple_implILi1EISt6vectorIiSaIiEEEED1Ev>
 8049d89:	c9                   	leave  
 8049d8a:	c3                   	ret    
 8049d8b:	90                   	nop

08049d8c <_ZNSt3tr15tupleII9MirrorImpSt6vectorIiSaIiEEEED1Ev>:
 8049d8c:	55                   	push   %ebp
 8049d8d:	89 e5                	mov    %esp,%ebp
 8049d8f:	83 ec 18             	sub    $0x18,%esp
 8049d92:	8b 45 08             	mov    0x8(%ebp),%eax
 8049d95:	89 04 24             	mov    %eax,(%esp)
 8049d98:	e8 cd ff ff ff       	call   8049d6a <_ZNSt3tr111_Tuple_implILi0EI9MirrorImpSt6vectorIiSaIiEEEED1Ev>
 8049d9d:	c9                   	leave  
 8049d9e:	c3                   	ret    
 8049d9f:	90                   	nop

08049da0 <_ZNSt3tr15_BindIFNS_7_Mem_fnIM9MirrorImpFvSt6vectorIiSaIiEEEEES2_S5_EED1Ev>:
 8049da0:	55                   	push   %ebp
 8049da1:	89 e5                	mov    %esp,%ebp
 8049da3:	83 ec 18             	sub    $0x18,%esp
 8049da6:	8b 45 08             	mov    0x8(%ebp),%eax
 8049da9:	83 c0 08             	add    $0x8,%eax
 8049dac:	89 04 24             	mov    %eax,(%esp)
 8049daf:	e8 d8 ff ff ff       	call   8049d8c <_ZNSt3tr15tupleII9MirrorImpSt6vectorIiSaIiEEEED1Ev>
 8049db4:	c9                   	leave  
 8049db5:	c3                   	ret    

08049db6 <_ZNSt3tr15_BindIFNS_7_Mem_fnIM9MirrorImpFvSt6vectorIiSaIiEEEEES2_S5_EEC1ERKSA_>:
 8049db6:	55                   	push   %ebp
 8049db7:	89 e5                	mov    %esp,%ebp
 8049db9:	83 ec 18             	sub    $0x18,%esp
 8049dbc:	8b 4d 08             	mov    0x8(%ebp),%ecx
 8049dbf:	8b 45 0c             	mov    0xc(%ebp),%eax
 8049dc2:	8b 50 04             	mov    0x4(%eax),%edx
 8049dc5:	8b 00                	mov    (%eax),%eax
 8049dc7:	89 01                	mov    %eax,(%ecx)
 8049dc9:	89 51 04             	mov    %edx,0x4(%ecx)
 8049dcc:	8b 45 0c             	mov    0xc(%ebp),%eax
 8049dcf:	8d 50 08             	lea    0x8(%eax),%edx
 8049dd2:	8b 45 08             	mov    0x8(%ebp),%eax
 8049dd5:	83 c0 08             	add    $0x8,%eax
 8049dd8:	89 54 24 04          	mov    %edx,0x4(%esp)
 8049ddc:	89 04 24             	mov    %eax,(%esp)
 8049ddf:	e8 5a 07 00 00       	call   804a53e <_ZNSt3tr15tupleII9MirrorImpSt6vectorIiSaIiEEEEC1ERKS5_>
 8049de4:	c9                   	leave  
 8049de5:	c3                   	ret    

08049de6 <_ZN11MirrorProxy5func2ERSt6vectorIiSaIiEE>:
 8049de6:	55                   	push   %ebp
 8049de7:	89 e5                	mov    %esp,%ebp
 8049de9:	57                   	push   %edi
 8049dea:	56                   	push   %esi
 8049deb:	53                   	push   %ebx
 8049dec:	81 ec 8c 00 00 00    	sub    $0x8c,%esp
 8049df2:	8b 45 08             	mov    0x8(%ebp),%eax
 8049df5:	89 45 94             	mov    %eax,-0x6c(%ebp)
 8049df8:	8b 45 0c             	mov    0xc(%ebp),%eax
 8049dfb:	89 45 90             	mov    %eax,-0x70(%ebp)
 8049dfe:	65 a1 14 00 00 00    	mov    %gs:0x14,%eax
 8049e04:	89 45 e4             	mov    %eax,-0x1c(%ebp)
 8049e07:	31 c0                	xor    %eax,%eax
 8049e09:	8b 45 90             	mov    -0x70(%ebp),%eax
 8049e0c:	89 44 24 04          	mov    %eax,0x4(%esp)
 8049e10:	8d 45 b4             	lea    -0x4c(%ebp),%eax
 8049e13:	89 04 24             	mov    %eax,(%esp)
 8049e16:	e8 7f 05 00 00       	call   804a39a <_ZNSt6vectorIiSaIiEEC1ERKS1_>
 8049e1b:	bb 2c 9a 04 08       	mov    $0x8049a2c,%ebx
 8049e20:	be 00 00 00 00       	mov    $0x0,%esi
 8049e25:	8d 45 9c             	lea    -0x64(%ebp),%eax
 8049e28:	8d 55 b4             	lea    -0x4c(%ebp),%edx
 8049e2b:	89 54 24 10          	mov    %edx,0x10(%esp)
 8049e2f:	8d 55 c2             	lea    -0x3e(%ebp),%edx
 8049e32:	89 54 24 0c          	mov    %edx,0xc(%esp)
 8049e36:	89 5c 24 04          	mov    %ebx,0x4(%esp)
 8049e3a:	89 74 24 08          	mov    %esi,0x8(%esp)
 8049e3e:	89 04 24             	mov    %eax,(%esp)
 8049e41:	e8 59 06 00 00       	call   804a49f <_ZNSt3tr14bindIM9MirrorImpFvSt6vectorIiSaIiEEEIS1_S4_EEENS_5_BindIFNS_26_Maybe_wrap_member_pointerIT_E4typeEDpT0_EEES9_SD_>
 8049e46:	83 ec 04             	sub    $0x4,%esp
 8049e49:	89 f8                	mov    %edi,%eax
 8049e4b:	88 44 24 08          	mov    %al,0x8(%esp)
 8049e4f:	8d 45 9c             	lea    -0x64(%ebp),%eax
 8049e52:	89 44 24 04          	mov    %eax,0x4(%esp)
 8049e56:	8d 45 c4             	lea    -0x3c(%ebp),%eax
 8049e59:	89 04 24             	mov    %eax,(%esp)
 8049e5c:	e8 f7 06 00 00       	call   804a558 <_ZNSt3tr18functionIFvvEEC1INS_5_BindIFNS_7_Mem_fnIM9MirrorImpFvSt6vectorIiSaIiEEEEES6_S9_EEEEET_N9__gnu_cxx11__enable_ifIXntsrNS_11is_integralISF_EE5valueENS2_8_UselessEE6__typeE>
 8049e61:	8d 45 9c             	lea    -0x64(%ebp),%eax
 8049e64:	89 04 24             	mov    %eax,(%esp)
 8049e67:	e8 34 ff ff ff       	call   8049da0 <_ZNSt3tr15_BindIFNS_7_Mem_fnIM9MirrorImpFvSt6vectorIiSaIiEEEEES2_S5_EED1Ev>
 8049e6c:	8d 45 c2             	lea    -0x3e(%ebp),%eax
 8049e6f:	89 04 24             	mov    %eax,(%esp)
 8049e72:	e8 73 fb ff ff       	call   80499ea <_ZN9MirrorImpD1Ev>
 8049e77:	8d 45 b4             	lea    -0x4c(%ebp),%eax
 8049e7a:	89 04 24             	mov    %eax,(%esp)
 8049e7d:	e8 c8 05 00 00       	call   804a44a <_ZNSt6vectorIiSaIiEED1Ev>
 8049e82:	c7 44 24 04 76 d1 04 	movl   $0x804d176,0x4(%esp)
 8049e89:	08 
 8049e8a:	c7 04 24 40 21 05 08 	movl   $0x8052140,(%esp)
 8049e91:	e8 4a f1 ff ff       	call   8048fe0 <_ZStlsISt11char_traitsIcEERSt13basic_ostreamIcT_ES5_PKc@plt>
 8049e96:	c7 44 24 04 10 00 00 	movl   $0x10,0x4(%esp)
 8049e9d:	00 
 8049e9e:	89 04 24             	mov    %eax,(%esp)
 8049ea1:	e8 ca f1 ff ff       	call   8049070 <_ZNSolsEj@plt>
 8049ea6:	c7 44 24 04 20 8f 04 	movl   $0x8048f20,0x4(%esp)
 8049ead:	08 
 8049eae:	89 04 24             	mov    %eax,(%esp)
 8049eb1:	e8 3a f1 ff ff       	call   8048ff0 <_ZNSolsEPFRSoS_E@plt>
 8049eb6:	8d 45 c4             	lea    -0x3c(%ebp),%eax
 8049eb9:	89 44 24 04          	mov    %eax,0x4(%esp)
 8049ebd:	8d 45 d4             	lea    -0x2c(%ebp),%eax
 8049ec0:	89 04 24             	mov    %eax,(%esp)
 8049ec3:	e8 a4 01 00 00       	call   804a06c <_ZNSt3tr18functionIFvvEEC1ERKS2_>
 8049ec8:	8b 45 94             	mov    -0x6c(%ebp),%eax
 8049ecb:	8b 00                	mov    (%eax),%eax
 8049ecd:	8d 55 d4             	lea    -0x2c(%ebp),%edx
 8049ed0:	89 54 24 04          	mov    %edx,0x4(%esp)
 8049ed4:	89 04 24             	mov    %eax,(%esp)
 8049ed7:	e8 78 fa ff ff       	call   8049954 <_ZN12MirrorThread4pushENSt3tr18functionIFvvEEE>
 8049edc:	8d 45 d4             	lea    -0x2c(%ebp),%eax
 8049edf:	89 04 24             	mov    %eax,(%esp)
 8049ee2:	e8 ab f8 ff ff       	call   8049792 <_ZNSt3tr18functionIFvvEED1Ev>
 8049ee7:	8d 45 c4             	lea    -0x3c(%ebp),%eax
 8049eea:	89 04 24             	mov    %eax,(%esp)
 8049eed:	e8 a0 f8 ff ff       	call   8049792 <_ZNSt3tr18functionIFvvEED1Ev>
 8049ef2:	8b 45 e4             	mov    -0x1c(%ebp),%eax
 8049ef5:	65 33 05 14 00 00 00 	xor    %gs:0x14,%eax
 8049efc:	0f 84 84 00 00 00    	je     8049f86 <_ZN11MirrorProxy5func2ERSt6vectorIiSaIiEE+0x1a0>
 8049f02:	eb 7d                	jmp    8049f81 <_ZN11MirrorProxy5func2ERSt6vectorIiSaIiEE+0x19b>
 8049f04:	89 c3                	mov    %eax,%ebx
 8049f06:	8d 45 9c             	lea    -0x64(%ebp),%eax
 8049f09:	89 04 24             	mov    %eax,(%esp)
 8049f0c:	e8 8f fe ff ff       	call   8049da0 <_ZNSt3tr15_BindIFNS_7_Mem_fnIM9MirrorImpFvSt6vectorIiSaIiEEEEES2_S5_EED1Ev>
 8049f11:	eb 11                	jmp    8049f24 <_ZN11MirrorProxy5func2ERSt6vectorIiSaIiEE+0x13e>
 8049f13:	89 c3                	mov    %eax,%ebx
 8049f15:	8d 45 c4             	lea    -0x3c(%ebp),%eax
 8049f18:	89 04 24             	mov    %eax,(%esp)
 8049f1b:	e8 72 f8 ff ff       	call   8049792 <_ZNSt3tr18functionIFvvEED1Ev>
 8049f20:	eb 02                	jmp    8049f24 <_ZN11MirrorProxy5func2ERSt6vectorIiSaIiEE+0x13e>
 8049f22:	89 c3                	mov    %eax,%ebx
 8049f24:	8d 45 c2             	lea    -0x3e(%ebp),%eax
 8049f27:	89 04 24             	mov    %eax,(%esp)
 8049f2a:	e8 bb fa ff ff       	call   80499ea <_ZN9MirrorImpD1Ev>
 8049f2f:	8d 45 b4             	lea    -0x4c(%ebp),%eax
 8049f32:	89 04 24             	mov    %eax,(%esp)
 8049f35:	e8 10 05 00 00       	call   804a44a <_ZNSt6vectorIiSaIiEED1Ev>
 8049f3a:	89 d8                	mov    %ebx,%eax
 8049f3c:	89 04 24             	mov    %eax,(%esp)
 8049f3f:	e8 cc f1 ff ff       	call   8049110 <_Unwind_Resume@plt>
 8049f44:	89 c3                	mov    %eax,%ebx
 8049f46:	8d 45 c4             	lea    -0x3c(%ebp),%eax
 8049f49:	89 04 24             	mov    %eax,(%esp)
 8049f4c:	e8 41 f8 ff ff       	call   8049792 <_ZNSt3tr18functionIFvvEED1Ev>
 8049f51:	89 d8                	mov    %ebx,%eax
 8049f53:	89 04 24             	mov    %eax,(%esp)
 8049f56:	e8 b5 f1 ff ff       	call   8049110 <_Unwind_Resume@plt>
 8049f5b:	89 c3                	mov    %eax,%ebx
 8049f5d:	8d 45 d4             	lea    -0x2c(%ebp),%eax
 8049f60:	89 04 24             	mov    %eax,(%esp)
 8049f63:	e8 2a f8 ff ff       	call   8049792 <_ZNSt3tr18functionIFvvEED1Ev>
 8049f68:	eb 02                	jmp    8049f6c <_ZN11MirrorProxy5func2ERSt6vectorIiSaIiEE+0x186>
 8049f6a:	89 c3                	mov    %eax,%ebx
 8049f6c:	8d 45 c4             	lea    -0x3c(%ebp),%eax
 8049f6f:	89 04 24             	mov    %eax,(%esp)
 8049f72:	e8 1b f8 ff ff       	call   8049792 <_ZNSt3tr18functionIFvvEED1Ev>
 8049f77:	89 d8                	mov    %ebx,%eax
 8049f79:	89 04 24             	mov    %eax,(%esp)
 8049f7c:	e8 8f f1 ff ff       	call   8049110 <_Unwind_Resume@plt>
 8049f81:	e8 8a f0 ff ff       	call   8049010 <__stack_chk_fail@plt>
 8049f86:	8d 65 f4             	lea    -0xc(%ebp),%esp
 8049f89:	5b                   	pop    %ebx
 8049f8a:	5e                   	pop    %esi
 8049f8b:	5f                   	pop    %edi
 8049f8c:	5d                   	pop    %ebp
 8049f8d:	c3                   	ret    

08049f8e <_ZNSt5dequeINSt3tr18functionIFvvEEESaIS3_EEC1Ev>:
 8049f8e:	55                   	push   %ebp
 8049f8f:	89 e5                	mov    %esp,%ebp
 8049f91:	83 ec 18             	sub    $0x18,%esp
 8049f94:	8b 45 08             	mov    0x8(%ebp),%eax
 8049f97:	89 04 24             	mov    %eax,(%esp)
 8049f9a:	e8 d9 06 00 00       	call   804a678 <_ZNSt11_Deque_baseINSt3tr18functionIFvvEEESaIS3_EEC1Ev>
 8049f9f:	c9                   	leave  
 8049fa0:	c3                   	ret    
 8049fa1:	90                   	nop

08049fa2 <_ZNSt5dequeINSt3tr18functionIFvvEEESaIS3_EED1Ev>:
 8049fa2:	55                   	push   %ebp
 8049fa3:	89 e5                	mov    %esp,%ebp
 8049fa5:	53                   	push   %ebx
 8049fa6:	83 ec 34             	sub    $0x34,%esp
 8049fa9:	8b 45 08             	mov    0x8(%ebp),%eax
 8049fac:	89 04 24             	mov    %eax,(%esp)
 8049faf:	e8 c4 07 00 00       	call   804a778 <_ZNSt11_Deque_baseINSt3tr18functionIFvvEEESaIS3_EE19_M_get_Tp_allocatorEv>
 8049fb4:	89 c3                	mov    %eax,%ebx
 8049fb6:	8d 45 e8             	lea    -0x18(%ebp),%eax
 8049fb9:	8b 55 08             	mov    0x8(%ebp),%edx
 8049fbc:	89 54 24 04          	mov    %edx,0x4(%esp)
 8049fc0:	89 04 24             	mov    %eax,(%esp)
 8049fc3:	e8 8e 07 00 00       	call   804a756 <_ZNSt5dequeINSt3tr18functionIFvvEEESaIS3_EE3endEv>
 8049fc8:	83 ec 04             	sub    $0x4,%esp
 8049fcb:	8d 45 d8             	lea    -0x28(%ebp),%eax
 8049fce:	8b 55 08             	mov    0x8(%ebp),%edx
 8049fd1:	89 54 24 04          	mov    %edx,0x4(%esp)
 8049fd5:	89 04 24             	mov    %eax,(%esp)
 8049fd8:	e8 57 07 00 00       	call   804a734 <_ZNSt5dequeINSt3tr18functionIFvvEEESaIS3_EE5beginEv>
 8049fdd:	83 ec 04             	sub    $0x4,%esp
 8049fe0:	89 5c 24 0c          	mov    %ebx,0xc(%esp)
 8049fe4:	8d 45 e8             	lea    -0x18(%ebp),%eax
 8049fe7:	89 44 24 08          	mov    %eax,0x8(%esp)
 8049feb:	8d 45 d8             	lea    -0x28(%ebp),%eax
 8049fee:	89 44 24 04          	mov    %eax,0x4(%esp)
 8049ff2:	8b 45 08             	mov    0x8(%ebp),%eax
 8049ff5:	89 04 24             	mov    %eax,(%esp)
 8049ff8:	e8 b7 07 00 00       	call   804a7b4 <_ZNSt5dequeINSt3tr18functionIFvvEEESaIS3_EE15_M_destroy_dataESt15_Deque_iteratorIS3_RS3_PS3_ES9_RKS4_>
 8049ffd:	8b 45 08             	mov    0x8(%ebp),%eax
 804a000:	89 04 24             	mov    %eax,(%esp)
 804a003:	e8 b4 06 00 00       	call   804a6bc <_ZNSt11_Deque_baseINSt3tr18functionIFvvEEESaIS3_EED1Ev>
 804a008:	8b 5d fc             	mov    -0x4(%ebp),%ebx
 804a00b:	c9                   	leave  
 804a00c:	c3                   	ret    
 804a00d:	89 c3                	mov    %eax,%ebx
 804a00f:	8b 45 08             	mov    0x8(%ebp),%eax
 804a012:	89 04 24             	mov    %eax,(%esp)
 804a015:	e8 a2 06 00 00       	call   804a6bc <_ZNSt11_Deque_baseINSt3tr18functionIFvvEEESaIS3_EED1Ev>
 804a01a:	89 d8                	mov    %ebx,%eax
 804a01c:	89 04 24             	mov    %eax,(%esp)
 804a01f:	e8 ec f0 ff ff       	call   8049110 <_Unwind_Resume@plt>

0804a024 <_ZNSt5queueINSt3tr18functionIFvvEEESt5dequeIS3_SaIS3_EEEC1ERKS6_>:
 804a024:	55                   	push   %ebp
 804a025:	89 e5                	mov    %esp,%ebp
 804a027:	83 ec 18             	sub    $0x18,%esp
 804a02a:	8b 45 08             	mov    0x8(%ebp),%eax
 804a02d:	8b 55 0c             	mov    0xc(%ebp),%edx
 804a030:	89 54 24 04          	mov    %edx,0x4(%esp)
 804a034:	89 04 24             	mov    %eax,(%esp)
 804a037:	e8 be 07 00 00       	call   804a7fa <_ZNSt5dequeINSt3tr18functionIFvvEEESaIS3_EEC1ERKS5_>
 804a03c:	c9                   	leave  
 804a03d:	c3                   	ret    

0804a03e <_ZNKSt5queueINSt3tr18functionIFvvEEESt5dequeIS3_SaIS3_EEE5emptyEv>:
 804a03e:	55                   	push   %ebp
 804a03f:	89 e5                	mov    %esp,%ebp
 804a041:	83 ec 18             	sub    $0x18,%esp
 804a044:	8b 45 08             	mov    0x8(%ebp),%eax
 804a047:	89 04 24             	mov    %eax,(%esp)
 804a04a:	e8 97 08 00 00       	call   804a8e6 <_ZNKSt5dequeINSt3tr18functionIFvvEEESaIS3_EE5emptyEv>
 804a04f:	c9                   	leave  
 804a050:	c3                   	ret    
 804a051:	90                   	nop

0804a052 <_ZNSt5queueINSt3tr18functionIFvvEEESt5dequeIS3_SaIS3_EEE5frontEv>:
 804a052:	55                   	push   %ebp
 804a053:	89 e5                	mov    %esp,%ebp
 804a055:	83 ec 18             	sub    $0x18,%esp
 804a058:	8b 45 08             	mov    0x8(%ebp),%eax
 804a05b:	89 04 24             	mov    %eax,(%esp)
 804a05e:	e8 a3 08 00 00       	call   804a906 <_ZNSt5dequeINSt3tr18functionIFvvEEESaIS3_EE5frontEv>
 804a063:	c9                   	leave  
 804a064:	c3                   	ret    
 804a065:	90                   	nop

0804a066 <_ZNSt3tr131_Maybe_unary_or_binary_functionIvIEEC1Ev>:
 804a066:	55                   	push   %ebp
 804a067:	89 e5                	mov    %esp,%ebp
 804a069:	5d                   	pop    %ebp
 804a06a:	c3                   	ret    
 804a06b:	90                   	nop

0804a06c <_ZNSt3tr18functionIFvvEEC1ERKS2_>:
 804a06c:	55                   	push   %ebp
 804a06d:	89 e5                	mov    %esp,%ebp
 804a06f:	53                   	push   %ebx
 804a070:	83 ec 14             	sub    $0x14,%esp
 804a073:	8b 45 08             	mov    0x8(%ebp),%eax
 804a076:	89 04 24             	mov    %eax,(%esp)
 804a079:	e8 e8 ff ff ff       	call   804a066 <_ZNSt3tr131_Maybe_unary_or_binary_functionIvIEEC1Ev>
 804a07e:	8b 45 08             	mov    0x8(%ebp),%eax
 804a081:	89 04 24             	mov    %eax,(%esp)
 804a084:	e8 47 f5 ff ff       	call   80495d0 <_ZNSt3tr114_Function_baseC1Ev>
 804a089:	8b 45 0c             	mov    0xc(%ebp),%eax
 804a08c:	89 04 24             	mov    %eax,(%esp)
 804a08f:	e8 9a 08 00 00       	call   804a92e <_ZNKSt3tr18functionIFvvEEcvMNS2_12_Hidden_typeEPS3_Ev>
 804a094:	83 f8 ff             	cmp    $0xffffffff,%eax
 804a097:	0f 95 c0             	setne  %al
 804a09a:	84 c0                	test   %al,%al
 804a09c:	74 4e                	je     804a0ec <_ZNSt3tr18functionIFvvEEC1ERKS2_+0x80>
 804a09e:	8b 45 0c             	mov    0xc(%ebp),%eax
 804a0a1:	8b 50 0c             	mov    0xc(%eax),%edx
 804a0a4:	8b 45 08             	mov    0x8(%ebp),%eax
 804a0a7:	89 50 0c             	mov    %edx,0xc(%eax)
 804a0aa:	8b 45 0c             	mov    0xc(%ebp),%eax
 804a0ad:	8b 50 08             	mov    0x8(%eax),%edx
 804a0b0:	8b 45 08             	mov    0x8(%ebp),%eax
 804a0b3:	89 50 08             	mov    %edx,0x8(%eax)
 804a0b6:	8b 45 0c             	mov    0xc(%ebp),%eax
 804a0b9:	8b 48 08             	mov    0x8(%eax),%ecx
 804a0bc:	8b 55 0c             	mov    0xc(%ebp),%edx
 804a0bf:	8b 45 08             	mov    0x8(%ebp),%eax
 804a0c2:	c7 44 24 08 02 00 00 	movl   $0x2,0x8(%esp)
 804a0c9:	00 
 804a0ca:	89 54 24 04          	mov    %edx,0x4(%esp)
 804a0ce:	89 04 24             	mov    %eax,(%esp)
 804a0d1:	ff d1                	call   *%ecx
 804a0d3:	eb 17                	jmp    804a0ec <_ZNSt3tr18functionIFvvEEC1ERKS2_+0x80>
 804a0d5:	89 c3                	mov    %eax,%ebx
 804a0d7:	8b 45 08             	mov    0x8(%ebp),%eax
 804a0da:	89 04 24             	mov    %eax,(%esp)
 804a0dd:	e8 fe f4 ff ff       	call   80495e0 <_ZNSt3tr114_Function_baseD1Ev>
 804a0e2:	89 d8                	mov    %ebx,%eax
 804a0e4:	89 04 24             	mov    %eax,(%esp)
 804a0e7:	e8 24 f0 ff ff       	call   8049110 <_Unwind_Resume@plt>
 804a0ec:	90                   	nop
 804a0ed:	83 c4 14             	add    $0x14,%esp
 804a0f0:	5b                   	pop    %ebx
 804a0f1:	5d                   	pop    %ebp
 804a0f2:	c3                   	ret    
 804a0f3:	90                   	nop

0804a0f4 <_ZNSt3tr117bad_function_callC1Ev>:
 804a0f4:	55                   	push   %ebp
 804a0f5:	89 e5                	mov    %esp,%ebp
 804a0f7:	83 ec 18             	sub    $0x18,%esp
 804a0fa:	8b 45 08             	mov    0x8(%ebp),%eax
 804a0fd:	89 04 24             	mov    %eax,(%esp)
 804a100:	e8 8f f2 ff ff       	call   8049394 <_ZNSt9exceptionC1Ev>
 804a105:	8b 45 08             	mov    0x8(%ebp),%eax
 804a108:	c7 00 c8 d1 04 08    	movl   $0x804d1c8,(%eax)
 804a10e:	c9                   	leave  
 804a10f:	c3                   	ret    

0804a110 <_ZNSt3tr117bad_function_callD1Ev>:
 804a110:	55                   	push   %ebp
 804a111:	89 e5                	mov    %esp,%ebp
 804a113:	83 ec 18             	sub    $0x18,%esp
 804a116:	8b 45 08             	mov    0x8(%ebp),%eax
 804a119:	c7 00 c8 d1 04 08    	movl   $0x804d1c8,(%eax)
 804a11f:	8b 45 08             	mov    0x8(%ebp),%eax
 804a122:	89 04 24             	mov    %eax,(%esp)
 804a125:	e8 26 f0 ff ff       	call   8049150 <_ZNSt9exceptionD2Ev@plt>
 804a12a:	b8 00 00 00 00       	mov    $0x0,%eax
 804a12f:	83 e0 01             	and    $0x1,%eax
 804a132:	84 c0                	test   %al,%al
 804a134:	74 0b                	je     804a141 <_ZNSt3tr117bad_function_callD1Ev+0x31>
 804a136:	8b 45 08             	mov    0x8(%ebp),%eax
 804a139:	89 04 24             	mov    %eax,(%esp)
 804a13c:	e8 6f ee ff ff       	call   8048fb0 <_ZdlPv@plt>
 804a141:	c9                   	leave  
 804a142:	c3                   	ret    
 804a143:	90                   	nop

0804a144 <_ZNSt3tr117bad_function_callD0Ev>:
 804a144:	55                   	push   %ebp
 804a145:	89 e5                	mov    %esp,%ebp
 804a147:	83 ec 18             	sub    $0x18,%esp
 804a14a:	8b 45 08             	mov    0x8(%ebp),%eax
 804a14d:	89 04 24             	mov    %eax,(%esp)
 804a150:	e8 bb ff ff ff       	call   804a110 <_ZNSt3tr117bad_function_callD1Ev>
 804a155:	8b 45 08             	mov    0x8(%ebp),%eax
 804a158:	89 04 24             	mov    %eax,(%esp)
 804a15b:	e8 50 ee ff ff       	call   8048fb0 <_ZdlPv@plt>
 804a160:	c9                   	leave  
 804a161:	c3                   	ret    

0804a162 <_ZNKSt3tr18functionIFvvEEclEv>:
 804a162:	55                   	push   %ebp
 804a163:	89 e5                	mov    %esp,%ebp
 804a165:	53                   	push   %ebx
 804a166:	83 ec 14             	sub    $0x14,%esp
 804a169:	8b 45 08             	mov    0x8(%ebp),%eax
 804a16c:	89 04 24             	mov    %eax,(%esp)
 804a16f:	e8 9c f4 ff ff       	call   8049610 <_ZNKSt3tr114_Function_base8_M_emptyEv>
 804a174:	84 c0                	test   %al,%al
 804a176:	74 35                	je     804a1ad <_ZNKSt3tr18functionIFvvEEclEv+0x4b>
 804a178:	c7 04 24 04 00 00 00 	movl   $0x4,(%esp)
 804a17f:	e8 ac ed ff ff       	call   8048f30 <__cxa_allocate_exception@plt>
 804a184:	89 c3                	mov    %eax,%ebx
 804a186:	c7 03 00 00 00 00    	movl   $0x0,(%ebx)
 804a18c:	89 1c 24             	mov    %ebx,(%esp)
 804a18f:	e8 60 ff ff ff       	call   804a0f4 <_ZNSt3tr117bad_function_callC1Ev>
 804a194:	b8 10 a1 04 08       	mov    $0x804a110,%eax
 804a199:	89 44 24 08          	mov    %eax,0x8(%esp)
 804a19d:	c7 44 24 04 bc d2 04 	movl   $0x804d2bc,0x4(%esp)
 804a1a4:	08 
 804a1a5:	89 1c 24             	mov    %ebx,(%esp)
 804a1a8:	e8 23 ef ff ff       	call   80490d0 <__cxa_throw@plt>
 804a1ad:	8b 45 08             	mov    0x8(%ebp),%eax
 804a1b0:	8b 50 0c             	mov    0xc(%eax),%edx
 804a1b3:	8b 45 08             	mov    0x8(%ebp),%eax
 804a1b6:	89 04 24             	mov    %eax,(%esp)
 804a1b9:	ff d2                	call   *%edx
 804a1bb:	83 c4 14             	add    $0x14,%esp
 804a1be:	5b                   	pop    %ebx
 804a1bf:	5d                   	pop    %ebp
 804a1c0:	c3                   	ret    
 804a1c1:	90                   	nop

0804a1c2 <_ZNSt5queueINSt3tr18functionIFvvEEESt5dequeIS3_SaIS3_EEE3popEv>:
 804a1c2:	55                   	push   %ebp
 804a1c3:	89 e5                	mov    %esp,%ebp
 804a1c5:	83 ec 18             	sub    $0x18,%esp
 804a1c8:	8b 45 08             	mov    0x8(%ebp),%eax
 804a1cb:	89 04 24             	mov    %eax,(%esp)
 804a1ce:	e8 7f 07 00 00       	call   804a952 <_ZNSt5dequeINSt3tr18functionIFvvEEESaIS3_EE9pop_frontEv>
 804a1d3:	c9                   	leave  
 804a1d4:	c3                   	ret    
 804a1d5:	90                   	nop

0804a1d6 <_ZNSt5queueINSt3tr18functionIFvvEEESt5dequeIS3_SaIS3_EEE4pushERKS3_>:
 804a1d6:	55                   	push   %ebp
 804a1d7:	89 e5                	mov    %esp,%ebp
 804a1d9:	83 ec 18             	sub    $0x18,%esp
 804a1dc:	8b 45 08             	mov    0x8(%ebp),%eax
 804a1df:	8b 55 0c             	mov    0xc(%ebp),%edx
 804a1e2:	89 54 24 04          	mov    %edx,0x4(%esp)
 804a1e6:	89 04 24             	mov    %eax,(%esp)
 804a1e9:	e8 b0 07 00 00       	call   804a99e <_ZNSt5dequeINSt3tr18functionIFvvEEESaIS3_EE9push_backERKS3_>
 804a1ee:	c9                   	leave  
 804a1ef:	c3                   	ret    

0804a1f0 <_ZNSt6vectorIiSaIiEE5beginEv>:
 804a1f0:	55                   	push   %ebp
 804a1f1:	89 e5                	mov    %esp,%ebp
 804a1f3:	83 ec 18             	sub    $0x18,%esp
 804a1f6:	8b 45 0c             	mov    0xc(%ebp),%eax
 804a1f9:	89 44 24 04          	mov    %eax,0x4(%esp)
 804a1fd:	8b 45 08             	mov    0x8(%ebp),%eax
 804a200:	89 04 24             	mov    %eax,(%esp)
 804a203:	e8 f0 07 00 00       	call   804a9f8 <_ZN9__gnu_cxx17__normal_iteratorIPiSt6vectorIiSaIiEEEC1ERKS1_>
 804a208:	8b 45 08             	mov    0x8(%ebp),%eax
 804a20b:	c9                   	leave  
 804a20c:	c2 04 00             	ret    $0x4
 804a20f:	90                   	nop

0804a210 <_ZNSt6vectorIiSaIiEE3endEv>:
 804a210:	55                   	push   %ebp
 804a211:	89 e5                	mov    %esp,%ebp
 804a213:	83 ec 18             	sub    $0x18,%esp
 804a216:	8b 45 0c             	mov    0xc(%ebp),%eax
 804a219:	83 c0 04             	add    $0x4,%eax
 804a21c:	89 44 24 04          	mov    %eax,0x4(%esp)
 804a220:	8b 45 08             	mov    0x8(%ebp),%eax
 804a223:	89 04 24             	mov    %eax,(%esp)
 804a226:	e8 cd 07 00 00       	call   804a9f8 <_ZN9__gnu_cxx17__normal_iteratorIPiSt6vectorIiSaIiEEEC1ERKS1_>
 804a22b:	8b 45 08             	mov    0x8(%ebp),%eax
 804a22e:	c9                   	leave  
 804a22f:	c2 04 00             	ret    $0x4

0804a232 <_ZN9__gnu_cxxneIPiSt6vectorIiSaIiEEEEbRKNS_17__normal_iteratorIT_T0_EESA_>:
 804a232:	55                   	push   %ebp
 804a233:	89 e5                	mov    %esp,%ebp
 804a235:	53                   	push   %ebx
 804a236:	83 ec 14             	sub    $0x14,%esp
 804a239:	8b 45 08             	mov    0x8(%ebp),%eax
 804a23c:	89 04 24             	mov    %eax,(%esp)
 804a23f:	e8 c4 07 00 00       	call   804aa08 <_ZNK9__gnu_cxx17__normal_iteratorIPiSt6vectorIiSaIiEEE4baseEv>
 804a244:	8b 18                	mov    (%eax),%ebx
 804a246:	8b 45 0c             	mov    0xc(%ebp),%eax
 804a249:	89 04 24             	mov    %eax,(%esp)
 804a24c:	e8 b7 07 00 00       	call   804aa08 <_ZNK9__gnu_cxx17__normal_iteratorIPiSt6vectorIiSaIiEEE4baseEv>
 804a251:	8b 00                	mov    (%eax),%eax
 804a253:	39 c3                	cmp    %eax,%ebx
 804a255:	0f 95 c0             	setne  %al
 804a258:	83 c4 14             	add    $0x14,%esp
 804a25b:	5b                   	pop    %ebx
 804a25c:	5d                   	pop    %ebp
 804a25d:	c3                   	ret    

0804a25e <_ZN9__gnu_cxx17__normal_iteratorIPiSt6vectorIiSaIiEEEppEi>:
 804a25e:	55                   	push   %ebp
 804a25f:	89 e5                	mov    %esp,%ebp
 804a261:	83 ec 28             	sub    $0x28,%esp
 804a264:	8b 45 0c             	mov    0xc(%ebp),%eax
 804a267:	8b 00                	mov    (%eax),%eax
 804a269:	89 45 f4             	mov    %eax,-0xc(%ebp)
 804a26c:	8d 55 f4             	lea    -0xc(%ebp),%edx
 804a26f:	8d 48 04             	lea    0x4(%eax),%ecx
 804a272:	8b 45 0c             	mov    0xc(%ebp),%eax
 804a275:	89 08                	mov    %ecx,(%eax)
 804a277:	89 54 24 04          	mov    %edx,0x4(%esp)
 804a27b:	8b 45 08             	mov    0x8(%ebp),%eax
 804a27e:	89 04 24             	mov    %eax,(%esp)
 804a281:	e8 72 07 00 00       	call   804a9f8 <_ZN9__gnu_cxx17__normal_iteratorIPiSt6vectorIiSaIiEEEC1ERKS1_>
 804a286:	8b 45 08             	mov    0x8(%ebp),%eax
 804a289:	c9                   	leave  
 804a28a:	c2 04 00             	ret    $0x4
 804a28d:	90                   	nop

0804a28e <_ZNK9__gnu_cxx17__normal_iteratorIPiSt6vectorIiSaIiEEEdeEv>:
 804a28e:	55                   	push   %ebp
 804a28f:	89 e5                	mov    %esp,%ebp
 804a291:	8b 45 08             	mov    0x8(%ebp),%eax
 804a294:	8b 00                	mov    (%eax),%eax
 804a296:	5d                   	pop    %ebp
 804a297:	c3                   	ret    

0804a298 <_ZNSt3tr14bindIM9MirrorImpFviEIS1_iEEENS_5_BindIFNS_26_Maybe_wrap_member_pointerIT_E4typeEDpT0_EEES6_SA_>:
 804a298:	55                   	push   %ebp
 804a299:	89 e5                	mov    %esp,%ebp
 804a29b:	53                   	push   %ebx
 804a29c:	83 ec 34             	sub    $0x34,%esp
 804a29f:	8d 4d ec             	lea    -0x14(%ebp),%ecx
 804a2a2:	8b 45 0c             	mov    0xc(%ebp),%eax
 804a2a5:	8b 55 10             	mov    0x10(%ebp),%edx
 804a2a8:	89 44 24 04          	mov    %eax,0x4(%esp)
 804a2ac:	89 54 24 08          	mov    %edx,0x8(%esp)
 804a2b0:	89 0c 24             	mov    %ecx,(%esp)
 804a2b3:	e8 58 07 00 00       	call   804aa10 <_ZNSt3tr126_Maybe_wrap_member_pointerIM9MirrorImpFviEE9__do_wrapES3_>
 804a2b8:	83 ec 04             	sub    $0x4,%esp
 804a2bb:	8b 45 18             	mov    0x18(%ebp),%eax
 804a2be:	89 44 24 10          	mov    %eax,0x10(%esp)
 804a2c2:	8d 45 f7             	lea    -0x9(%ebp),%eax
 804a2c5:	89 44 24 0c          	mov    %eax,0xc(%esp)
 804a2c9:	8b 45 ec             	mov    -0x14(%ebp),%eax
 804a2cc:	8b 55 f0             	mov    -0x10(%ebp),%edx
 804a2cf:	89 44 24 04          	mov    %eax,0x4(%esp)
 804a2d3:	89 54 24 08          	mov    %edx,0x8(%esp)
 804a2d7:	8b 45 08             	mov    0x8(%ebp),%eax
 804a2da:	89 04 24             	mov    %eax,(%esp)
 804a2dd:	e8 82 07 00 00       	call   804aa64 <_ZNSt3tr15_BindIFNS_7_Mem_fnIM9MirrorImpFviEEES2_iEEC1ES5_S2_i>
 804a2e2:	8d 45 f7             	lea    -0x9(%ebp),%eax
 804a2e5:	89 04 24             	mov    %eax,(%esp)
 804a2e8:	e8 fd f6 ff ff       	call   80499ea <_ZN9MirrorImpD1Ev>
 804a2ed:	8b 45 08             	mov    0x8(%ebp),%eax
 804a2f0:	8b 5d fc             	mov    -0x4(%ebp),%ebx
 804a2f3:	c9                   	leave  
 804a2f4:	c2 04 00             	ret    $0x4
 804a2f7:	89 c3                	mov    %eax,%ebx
 804a2f9:	8d 45 f7             	lea    -0x9(%ebp),%eax
 804a2fc:	89 04 24             	mov    %eax,(%esp)
 804a2ff:	e8 e6 f6 ff ff       	call   80499ea <_ZN9MirrorImpD1Ev>
 804a304:	89 d8                	mov    %ebx,%eax
 804a306:	89 04 24             	mov    %eax,(%esp)
 804a309:	e8 02 ee ff ff       	call   8049110 <_Unwind_Resume@plt>

0804a30e <_ZNSt3tr15tupleII9MirrorImpiEEC1ERKS2_>:
 804a30e:	55                   	push   %ebp
 804a30f:	89 e5                	mov    %esp,%ebp
 804a311:	83 ec 18             	sub    $0x18,%esp
 804a314:	8b 55 0c             	mov    0xc(%ebp),%edx
 804a317:	8b 45 08             	mov    0x8(%ebp),%eax
 804a31a:	89 54 24 04          	mov    %edx,0x4(%esp)
 804a31e:	89 04 24             	mov    %eax,(%esp)
 804a321:	e8 7c 07 00 00       	call   804aaa2 <_ZNSt3tr111_Tuple_implILi0EI9MirrorImpiEEC1ERKS2_>
 804a326:	c9                   	leave  
 804a327:	c3                   	ret    

0804a328 <_ZNSt3tr18functionIFvvEEC1INS_5_BindIFNS_7_Mem_fnIM9MirrorImpFviEEES6_iEEEEET_N9__gnu_cxx11__enable_ifIXntsrNS_11is_integralISC_EE5valueENS2_8_UselessEE6__typeE>:
 804a328:	55                   	push   %ebp
 804a329:	89 e5                	mov    %esp,%ebp
 804a32b:	53                   	push   %ebx
 804a32c:	83 ec 14             	sub    $0x14,%esp
 804a32f:	8b 45 08             	mov    0x8(%ebp),%eax
 804a332:	89 04 24             	mov    %eax,(%esp)
 804a335:	e8 2c fd ff ff       	call   804a066 <_ZNSt3tr131_Maybe_unary_or_binary_functionIvIEEC1Ev>
 804a33a:	8b 45 08             	mov    0x8(%ebp),%eax
 804a33d:	89 04 24             	mov    %eax,(%esp)
 804a340:	e8 8b f2 ff ff       	call   80495d0 <_ZNSt3tr114_Function_baseC1Ev>
 804a345:	8b 45 0c             	mov    0xc(%ebp),%eax
 804a348:	89 04 24             	mov    %eax,(%esp)
 804a34b:	e8 74 07 00 00       	call   804aac4 <_ZNSt3tr114_Function_base13_Base_managerINS_5_BindIFNS_7_Mem_fnIM9MirrorImpFviEEES4_iEEEE21_M_not_empty_functionIS9_EEbRKT_>
 804a350:	84 c0                	test   %al,%al
 804a352:	74 3f                	je     804a393 <_ZNSt3tr18functionIFvvEEC1INS_5_BindIFNS_7_Mem_fnIM9MirrorImpFviEEES6_iEEEEET_N9__gnu_cxx11__enable_ifIXntsrNS_11is_integralISC_EE5valueENS2_8_UselessEE6__typeE+0x6b>
 804a354:	8b 45 08             	mov    0x8(%ebp),%eax
 804a357:	c7 40 0c ce aa 04 08 	movl   $0x804aace,0xc(%eax)
 804a35e:	8b 45 08             	mov    0x8(%ebp),%eax
 804a361:	c7 40 08 e9 aa 04 08 	movl   $0x804aae9,0x8(%eax)
 804a368:	8b 45 08             	mov    0x8(%ebp),%eax
 804a36b:	8b 55 0c             	mov    0xc(%ebp),%edx
 804a36e:	89 54 24 04          	mov    %edx,0x4(%esp)
 804a372:	89 04 24             	mov    %eax,(%esp)
 804a375:	e8 f7 07 00 00       	call   804ab71 <_ZNSt3tr114_Function_base13_Base_managerINS_5_BindIFNS_7_Mem_fnIM9MirrorImpFviEEES4_iEEEE15_M_init_functorERNS_9_Any_dataERKS9_>
 804a37a:	eb 17                	jmp    804a393 <_ZNSt3tr18functionIFvvEEC1INS_5_BindIFNS_7_Mem_fnIM9MirrorImpFviEEES6_iEEEEET_N9__gnu_cxx11__enable_ifIXntsrNS_11is_integralISC_EE5valueENS2_8_UselessEE6__typeE+0x6b>
 804a37c:	89 c3                	mov    %eax,%ebx
 804a37e:	8b 45 08             	mov    0x8(%ebp),%eax
 804a381:	89 04 24             	mov    %eax,(%esp)
 804a384:	e8 57 f2 ff ff       	call   80495e0 <_ZNSt3tr114_Function_baseD1Ev>
 804a389:	89 d8                	mov    %ebx,%eax
 804a38b:	89 04 24             	mov    %eax,(%esp)
 804a38e:	e8 7d ed ff ff       	call   8049110 <_Unwind_Resume@plt>
 804a393:	90                   	nop
 804a394:	83 c4 14             	add    $0x14,%esp
 804a397:	5b                   	pop    %ebx
 804a398:	5d                   	pop    %ebp
 804a399:	c3                   	ret    

0804a39a <_ZNSt6vectorIiSaIiEEC1ERKS1_>:
 804a39a:	55                   	push   %ebp
 804a39b:	89 e5                	mov    %esp,%ebp
 804a39d:	56                   	push   %esi
 804a39e:	53                   	push   %ebx
 804a39f:	83 ec 20             	sub    $0x20,%esp
 804a3a2:	8b 45 0c             	mov    0xc(%ebp),%eax
 804a3a5:	89 04 24             	mov    %eax,(%esp)
 804a3a8:	e8 ff 07 00 00       	call   804abac <_ZNKSt12_Vector_baseIiSaIiEE19_M_get_Tp_allocatorEv>
 804a3ad:	89 c3                	mov    %eax,%ebx
 804a3af:	8b 45 0c             	mov    0xc(%ebp),%eax
 804a3b2:	89 04 24             	mov    %eax,(%esp)
 804a3b5:	e8 d6 07 00 00       	call   804ab90 <_ZNKSt6vectorIiSaIiEE4sizeEv>
 804a3ba:	8b 55 08             	mov    0x8(%ebp),%edx
 804a3bd:	89 5c 24 08          	mov    %ebx,0x8(%esp)
 804a3c1:	89 44 24 04          	mov    %eax,0x4(%esp)
 804a3c5:	89 14 24             	mov    %edx,(%esp)
 804a3c8:	e8 fb 07 00 00       	call   804abc8 <_ZNSt12_Vector_baseIiSaIiEEC1EjRKS0_>
 804a3cd:	8b 45 08             	mov    0x8(%ebp),%eax
 804a3d0:	89 04 24             	mov    %eax,(%esp)
 804a3d3:	e8 0e 09 00 00       	call   804ace6 <_ZNSt12_Vector_baseIiSaIiEE19_M_get_Tp_allocatorEv>
 804a3d8:	89 c3                	mov    %eax,%ebx
 804a3da:	8b 45 08             	mov    0x8(%ebp),%eax
 804a3dd:	8b 30                	mov    (%eax),%esi
 804a3df:	8d 45 f4             	lea    -0xc(%ebp),%eax
 804a3e2:	8b 55 0c             	mov    0xc(%ebp),%edx
 804a3e5:	89 54 24 04          	mov    %edx,0x4(%esp)
 804a3e9:	89 04 24             	mov    %eax,(%esp)
 804a3ec:	e8 cd 08 00 00       	call   804acbe <_ZNKSt6vectorIiSaIiEE3endEv>
 804a3f1:	83 ec 04             	sub    $0x4,%esp
 804a3f4:	8d 45 f0             	lea    -0x10(%ebp),%eax
 804a3f7:	8b 55 0c             	mov    0xc(%ebp),%edx
 804a3fa:	89 54 24 04          	mov    %edx,0x4(%esp)
 804a3fe:	89 04 24             	mov    %eax,(%esp)
 804a401:	e8 90 08 00 00       	call   804ac96 <_ZNKSt6vectorIiSaIiEE5beginEv>
 804a406:	83 ec 04             	sub    $0x4,%esp
 804a409:	89 5c 24 0c          	mov    %ebx,0xc(%esp)
 804a40d:	89 74 24 08          	mov    %esi,0x8(%esp)
 804a411:	8b 45 f4             	mov    -0xc(%ebp),%eax
 804a414:	89 44 24 04          	mov    %eax,0x4(%esp)
 804a418:	8b 45 f0             	mov    -0x10(%ebp),%eax
 804a41b:	89 04 24             	mov    %eax,(%esp)
 804a41e:	e8 cb 08 00 00       	call   804acee <_ZSt22__uninitialized_copy_aIN9__gnu_cxx17__normal_iteratorIPKiSt6vectorIiSaIiEEEEPiiET0_T_SA_S9_RSaIT1_E>
 804a423:	89 c2                	mov    %eax,%edx
 804a425:	8b 45 08             	mov    0x8(%ebp),%eax
 804a428:	89 50 04             	mov    %edx,0x4(%eax)
 804a42b:	8d 65 f8             	lea    -0x8(%ebp),%esp
 804a42e:	5b                   	pop    %ebx
 804a42f:	5e                   	pop    %esi
 804a430:	5d                   	pop    %ebp
 804a431:	c3                   	ret    
 804a432:	89 c3                	mov    %eax,%ebx
 804a434:	8b 45 08             	mov    0x8(%ebp),%eax
 804a437:	89 04 24             	mov    %eax,(%esp)
 804a43a:	e8 f7 07 00 00       	call   804ac36 <_ZNSt12_Vector_baseIiSaIiEED1Ev>
 804a43f:	89 d8                	mov    %ebx,%eax
 804a441:	89 04 24             	mov    %eax,(%esp)
 804a444:	e8 c7 ec ff ff       	call   8049110 <_Unwind_Resume@plt>
 804a449:	90                   	nop

0804a44a <_ZNSt6vectorIiSaIiEED1Ev>:
 804a44a:	55                   	push   %ebp
 804a44b:	89 e5                	mov    %esp,%ebp
 804a44d:	53                   	push   %ebx
 804a44e:	83 ec 14             	sub    $0x14,%esp
 804a451:	8b 45 08             	mov    0x8(%ebp),%eax
 804a454:	89 04 24             	mov    %eax,(%esp)
 804a457:	e8 8a 08 00 00       	call   804ace6 <_ZNSt12_Vector_baseIiSaIiEE19_M_get_Tp_allocatorEv>
 804a45c:	8b 55 08             	mov    0x8(%ebp),%edx
 804a45f:	8b 4a 04             	mov    0x4(%edx),%ecx
 804a462:	8b 55 08             	mov    0x8(%ebp),%edx
 804a465:	8b 12                	mov    (%edx),%edx
 804a467:	89 44 24 08          	mov    %eax,0x8(%esp)
 804a46b:	89 4c 24 04          	mov    %ecx,0x4(%esp)
 804a46f:	89 14 24             	mov    %edx,(%esp)
 804a472:	e8 98 08 00 00       	call   804ad0f <_ZSt8_DestroyIPiiEvT_S1_RSaIT0_E>
 804a477:	8b 45 08             	mov    0x8(%ebp),%eax
 804a47a:	89 04 24             	mov    %eax,(%esp)
 804a47d:	e8 b4 07 00 00       	call   804ac36 <_ZNSt12_Vector_baseIiSaIiEED1Ev>
 804a482:	83 c4 14             	add    $0x14,%esp
 804a485:	5b                   	pop    %ebx
 804a486:	5d                   	pop    %ebp
 804a487:	c3                   	ret    
 804a488:	89 c3                	mov    %eax,%ebx
 804a48a:	8b 45 08             	mov    0x8(%ebp),%eax
 804a48d:	89 04 24             	mov    %eax,(%esp)
 804a490:	e8 a1 07 00 00       	call   804ac36 <_ZNSt12_Vector_baseIiSaIiEED1Ev>
 804a495:	89 d8                	mov    %ebx,%eax
 804a497:	89 04 24             	mov    %eax,(%esp)
 804a49a:	e8 71 ec ff ff       	call   8049110 <_Unwind_Resume@plt>

0804a49f <_ZNSt3tr14bindIM9MirrorImpFvSt6vectorIiSaIiEEEIS1_S4_EEENS_5_BindIFNS_26_Maybe_wrap_member_pointerIT_E4typeEDpT0_EEES9_SD_>:
 804a49f:	55                   	push   %ebp
 804a4a0:	89 e5                	mov    %esp,%ebp
 804a4a2:	53                   	push   %ebx
 804a4a3:	83 ec 44             	sub    $0x44,%esp
 804a4a6:	8b 45 18             	mov    0x18(%ebp),%eax
 804a4a9:	89 44 24 04          	mov    %eax,0x4(%esp)
 804a4ad:	8d 45 e0             	lea    -0x20(%ebp),%eax
 804a4b0:	89 04 24             	mov    %eax,(%esp)
 804a4b3:	e8 e2 fe ff ff       	call   804a39a <_ZNSt6vectorIiSaIiEEC1ERKS1_>
 804a4b8:	8d 4d ec             	lea    -0x14(%ebp),%ecx
 804a4bb:	8b 45 0c             	mov    0xc(%ebp),%eax
 804a4be:	8b 55 10             	mov    0x10(%ebp),%edx
 804a4c1:	89 44 24 04          	mov    %eax,0x4(%esp)
 804a4c5:	89 54 24 08          	mov    %edx,0x8(%esp)
 804a4c9:	89 0c 24             	mov    %ecx,(%esp)
 804a4cc:	e8 58 08 00 00       	call   804ad29 <_ZNSt3tr126_Maybe_wrap_member_pointerIM9MirrorImpFvSt6vectorIiSaIiEEEE9__do_wrapES6_>
 804a4d1:	83 ec 04             	sub    $0x4,%esp
 804a4d4:	8d 45 e0             	lea    -0x20(%ebp),%eax
 804a4d7:	89 44 24 10          	mov    %eax,0x10(%esp)
 804a4db:	8d 45 f7             	lea    -0x9(%ebp),%eax
 804a4de:	89 44 24 0c          	mov    %eax,0xc(%esp)
 804a4e2:	8b 45 ec             	mov    -0x14(%ebp),%eax
 804a4e5:	8b 55 f0             	mov    -0x10(%ebp),%edx
 804a4e8:	89 44 24 04          	mov    %eax,0x4(%esp)
 804a4ec:	89 54 24 08          	mov    %edx,0x8(%esp)
 804a4f0:	8b 45 08             	mov    0x8(%ebp),%eax
 804a4f3:	89 04 24             	mov    %eax,(%esp)
 804a4f6:	e8 83 08 00 00       	call   804ad7e <_ZNSt3tr15_BindIFNS_7_Mem_fnIM9MirrorImpFvSt6vectorIiSaIiEEEEES2_S5_EEC1ES8_S2_S5_>
 804a4fb:	8d 45 f7             	lea    -0x9(%ebp),%eax
 804a4fe:	89 04 24             	mov    %eax,(%esp)
 804a501:	e8 e4 f4 ff ff       	call   80499ea <_ZN9MirrorImpD1Ev>
 804a506:	8d 45 e0             	lea    -0x20(%ebp),%eax
 804a509:	89 04 24             	mov    %eax,(%esp)
 804a50c:	e8 39 ff ff ff       	call   804a44a <_ZNSt6vectorIiSaIiEED1Ev>
 804a511:	8b 45 08             	mov    0x8(%ebp),%eax
 804a514:	8b 5d fc             	mov    -0x4(%ebp),%ebx
 804a517:	c9                   	leave  
 804a518:	c2 04 00             	ret    $0x4
 804a51b:	89 c3                	mov    %eax,%ebx
 804a51d:	8d 45 f7             	lea    -0x9(%ebp),%eax
 804a520:	89 04 24             	mov    %eax,(%esp)
 804a523:	e8 c2 f4 ff ff       	call   80499ea <_ZN9MirrorImpD1Ev>
 804a528:	8d 45 e0             	lea    -0x20(%ebp),%eax
 804a52b:	89 04 24             	mov    %eax,(%esp)
 804a52e:	e8 17 ff ff ff       	call   804a44a <_ZNSt6vectorIiSaIiEED1Ev>
 804a533:	89 d8                	mov    %ebx,%eax
 804a535:	89 04 24             	mov    %eax,(%esp)
 804a538:	e8 d3 eb ff ff       	call   8049110 <_Unwind_Resume@plt>
 804a53d:	90                   	nop

0804a53e <_ZNSt3tr15tupleII9MirrorImpSt6vectorIiSaIiEEEEC1ERKS5_>:
 804a53e:	55                   	push   %ebp
 804a53f:	89 e5                	mov    %esp,%ebp
 804a541:	83 ec 18             	sub    $0x18,%esp
 804a544:	8b 55 0c             	mov    0xc(%ebp),%edx
 804a547:	8b 45 08             	mov    0x8(%ebp),%eax
 804a54a:	89 54 24 04          	mov    %edx,0x4(%esp)
 804a54e:	89 04 24             	mov    %eax,(%esp)
 804a551:	e8 66 08 00 00       	call   804adbc <_ZNSt3tr111_Tuple_implILi0EI9MirrorImpSt6vectorIiSaIiEEEEC1ERKS5_>
 804a556:	c9                   	leave  
 804a557:	c3                   	ret    

0804a558 <_ZNSt3tr18functionIFvvEEC1INS_5_BindIFNS_7_Mem_fnIM9MirrorImpFvSt6vectorIiSaIiEEEEES6_S9_EEEEET_N9__gnu_cxx11__enable_ifIXntsrNS_11is_integralISF_EE5valueENS2_8_UselessEE6__typeE>:
 804a558:	55                   	push   %ebp
 804a559:	89 e5                	mov    %esp,%ebp
 804a55b:	53                   	push   %ebx
 804a55c:	83 ec 14             	sub    $0x14,%esp
 804a55f:	8b 45 08             	mov    0x8(%ebp),%eax
 804a562:	89 04 24             	mov    %eax,(%esp)
 804a565:	e8 fc fa ff ff       	call   804a066 <_ZNSt3tr131_Maybe_unary_or_binary_functionIvIEEC1Ev>
 804a56a:	8b 45 08             	mov    0x8(%ebp),%eax
 804a56d:	89 04 24             	mov    %eax,(%esp)
 804a570:	e8 5b f0 ff ff       	call   80495d0 <_ZNSt3tr114_Function_baseC1Ev>
 804a575:	8b 45 0c             	mov    0xc(%ebp),%eax
 804a578:	89 04 24             	mov    %eax,(%esp)
 804a57b:	e8 5e 08 00 00       	call   804adde <_ZNSt3tr114_Function_base13_Base_managerINS_5_BindIFNS_7_Mem_fnIM9MirrorImpFvSt6vectorIiSaIiEEEEES4_S7_EEEE21_M_not_empty_functionISC_EEbRKT_>
 804a580:	84 c0                	test   %al,%al
 804a582:	74 3f                	je     804a5c3 <_ZNSt3tr18functionIFvvEEC1INS_5_BindIFNS_7_Mem_fnIM9MirrorImpFvSt6vectorIiSaIiEEEEES6_S9_EEEEET_N9__gnu_cxx11__enable_ifIXntsrNS_11is_integralISF_EE5valueENS2_8_UselessEE6__typeE+0x6b>
 804a584:	8b 45 08             	mov    0x8(%ebp),%eax
 804a587:	c7 40 0c e8 ad 04 08 	movl   $0x804ade8,0xc(%eax)
 804a58e:	8b 45 08             	mov    0x8(%ebp),%eax
 804a591:	c7 40 08 03 ae 04 08 	movl   $0x804ae03,0x8(%eax)
 804a598:	8b 45 08             	mov    0x8(%ebp),%eax
 804a59b:	8b 55 0c             	mov    0xc(%ebp),%edx
 804a59e:	89 54 24 04          	mov    %edx,0x4(%esp)
 804a5a2:	89 04 24             	mov    %eax,(%esp)
 804a5a5:	e8 e1 08 00 00       	call   804ae8b <_ZNSt3tr114_Function_base13_Base_managerINS_5_BindIFNS_7_Mem_fnIM9MirrorImpFvSt6vectorIiSaIiEEEEES4_S7_EEEE15_M_init_functorERNS_9_Any_dataERKSC_>
 804a5aa:	eb 17                	jmp    804a5c3 <_ZNSt3tr18functionIFvvEEC1INS_5_BindIFNS_7_Mem_fnIM9MirrorImpFvSt6vectorIiSaIiEEEEES6_S9_EEEEET_N9__gnu_cxx11__enable_ifIXntsrNS_11is_integralISF_EE5valueENS2_8_UselessEE6__typeE+0x6b>
 804a5ac:	89 c3                	mov    %eax,%ebx
 804a5ae:	8b 45 08             	mov    0x8(%ebp),%eax
 804a5b1:	89 04 24             	mov    %eax,(%esp)
 804a5b4:	e8 27 f0 ff ff       	call   80495e0 <_ZNSt3tr114_Function_baseD1Ev>
 804a5b9:	89 d8                	mov    %ebx,%eax
 804a5bb:	89 04 24             	mov    %eax,(%esp)
 804a5be:	e8 4d eb ff ff       	call   8049110 <_Unwind_Resume@plt>
 804a5c3:	90                   	nop
 804a5c4:	83 c4 14             	add    $0x14,%esp
 804a5c7:	5b                   	pop    %ebx
 804a5c8:	5d                   	pop    %ebp
 804a5c9:	c3                   	ret    

0804a5ca <_ZNSt6vectorIiSaIiEEC1Ev>:
 804a5ca:	55                   	push   %ebp
 804a5cb:	89 e5                	mov    %esp,%ebp
 804a5cd:	83 ec 18             	sub    $0x18,%esp
 804a5d0:	8b 45 08             	mov    0x8(%ebp),%eax
 804a5d3:	89 04 24             	mov    %eax,(%esp)
 804a5d6:	e8 cf 08 00 00       	call   804aeaa <_ZNSt12_Vector_baseIiSaIiEEC1Ev>
 804a5db:	c9                   	leave  
 804a5dc:	c3                   	ret    
 804a5dd:	90                   	nop

0804a5de <_ZNSt6vectorIiSaIiEE9push_backERKi>:
 804a5de:	55                   	push   %ebp
 804a5df:	89 e5                	mov    %esp,%ebp
 804a5e1:	83 ec 28             	sub    $0x28,%esp
 804a5e4:	8b 45 08             	mov    0x8(%ebp),%eax
 804a5e7:	8b 50 04             	mov    0x4(%eax),%edx
 804a5ea:	8b 45 08             	mov    0x8(%ebp),%eax
 804a5ed:	8b 40 08             	mov    0x8(%eax),%eax
 804a5f0:	39 c2                	cmp    %eax,%edx
 804a5f2:	74 2d                	je     804a621 <_ZNSt6vectorIiSaIiEE9push_backERKi+0x43>
 804a5f4:	8b 45 08             	mov    0x8(%ebp),%eax
 804a5f7:	8b 50 04             	mov    0x4(%eax),%edx
 804a5fa:	8b 45 08             	mov    0x8(%ebp),%eax
 804a5fd:	8b 4d 0c             	mov    0xc(%ebp),%ecx
 804a600:	89 4c 24 08          	mov    %ecx,0x8(%esp)
 804a604:	89 54 24 04          	mov    %edx,0x4(%esp)
 804a608:	89 04 24             	mov    %eax,(%esp)
 804a60b:	e8 ae 08 00 00       	call   804aebe <_ZN9__gnu_cxx13new_allocatorIiE9constructEPiRKi>
 804a610:	8b 45 08             	mov    0x8(%ebp),%eax
 804a613:	8b 40 04             	mov    0x4(%eax),%eax
 804a616:	8d 50 04             	lea    0x4(%eax),%edx
 804a619:	8b 45 08             	mov    0x8(%ebp),%eax
 804a61c:	89 50 04             	mov    %edx,0x4(%eax)
 804a61f:	eb 2e                	jmp    804a64f <_ZNSt6vectorIiSaIiEE9push_backERKi+0x71>
 804a621:	8d 45 f4             	lea    -0xc(%ebp),%eax
 804a624:	8b 55 08             	mov    0x8(%ebp),%edx
 804a627:	89 54 24 04          	mov    %edx,0x4(%esp)
 804a62b:	89 04 24             	mov    %eax,(%esp)
 804a62e:	e8 dd fb ff ff       	call   804a210 <_ZNSt6vectorIiSaIiEE3endEv>
 804a633:	83 ec 04             	sub    $0x4,%esp
 804a636:	8b 45 0c             	mov    0xc(%ebp),%eax
 804a639:	89 44 24 08          	mov    %eax,0x8(%esp)
 804a63d:	8b 45 f4             	mov    -0xc(%ebp),%eax
 804a640:	89 44 24 04          	mov    %eax,0x4(%esp)
 804a644:	8b 45 08             	mov    0x8(%ebp),%eax
 804a647:	89 04 24             	mov    %eax,(%esp)
 804a64a:	e8 95 08 00 00       	call   804aee4 <_ZNSt6vectorIiSaIiEE13_M_insert_auxEN9__gnu_cxx17__normal_iteratorIPiS1_EERKi>
 804a64f:	c9                   	leave  
 804a650:	c3                   	ret    
 804a651:	90                   	nop

0804a652 <_ZNSt6vectorIiSaIiEEixEj>:
 804a652:	55                   	push   %ebp
 804a653:	89 e5                	mov    %esp,%ebp
 804a655:	8b 45 08             	mov    0x8(%ebp),%eax
 804a658:	8b 00                	mov    (%eax),%eax
 804a65a:	8b 55 0c             	mov    0xc(%ebp),%edx
 804a65d:	c1 e2 02             	shl    $0x2,%edx
 804a660:	01 d0                	add    %edx,%eax
 804a662:	5d                   	pop    %ebp
 804a663:	c3                   	ret    

0804a664 <_ZNSt11_Deque_baseINSt3tr18functionIFvvEEESaIS3_EE11_Deque_implD1Ev>:
 804a664:	55                   	push   %ebp
 804a665:	89 e5                	mov    %esp,%ebp
 804a667:	83 ec 18             	sub    $0x18,%esp
 804a66a:	8b 45 08             	mov    0x8(%ebp),%eax
 804a66d:	89 04 24             	mov    %eax,(%esp)
 804a670:	e8 43 0b 00 00       	call   804b1b8 <_ZNSaINSt3tr18functionIFvvEEEED1Ev>
 804a675:	c9                   	leave  
 804a676:	c3                   	ret    
 804a677:	90                   	nop

0804a678 <_ZNSt11_Deque_baseINSt3tr18functionIFvvEEESaIS3_EEC1Ev>:
 804a678:	55                   	push   %ebp
 804a679:	89 e5                	mov    %esp,%ebp
 804a67b:	53                   	push   %ebx
 804a67c:	83 ec 14             	sub    $0x14,%esp
 804a67f:	8b 45 08             	mov    0x8(%ebp),%eax
 804a682:	89 04 24             	mov    %eax,(%esp)
 804a685:	e8 ec 0a 00 00       	call   804b176 <_ZNSt11_Deque_baseINSt3tr18functionIFvvEEESaIS3_EE11_Deque_implC1Ev>
 804a68a:	c7 44 24 04 00 00 00 	movl   $0x0,0x4(%esp)
 804a691:	00 
 804a692:	8b 45 08             	mov    0x8(%ebp),%eax
 804a695:	89 04 24             	mov    %eax,(%esp)
 804a698:	e8 2f 0b 00 00       	call   804b1cc <_ZNSt11_Deque_baseINSt3tr18functionIFvvEEESaIS3_EE17_M_initialize_mapEj>
 804a69d:	eb 17                	jmp    804a6b6 <_ZNSt11_Deque_baseINSt3tr18functionIFvvEEESaIS3_EEC1Ev+0x3e>
 804a69f:	89 c3                	mov    %eax,%ebx
 804a6a1:	8b 45 08             	mov    0x8(%ebp),%eax
 804a6a4:	89 04 24             	mov    %eax,(%esp)
 804a6a7:	e8 b8 ff ff ff       	call   804a664 <_ZNSt11_Deque_baseINSt3tr18functionIFvvEEESaIS3_EE11_Deque_implD1Ev>
 804a6ac:	89 d8                	mov    %ebx,%eax
 804a6ae:	89 04 24             	mov    %eax,(%esp)
 804a6b1:	e8 5a ea ff ff       	call   8049110 <_Unwind_Resume@plt>
 804a6b6:	83 c4 14             	add    $0x14,%esp
 804a6b9:	5b                   	pop    %ebx
 804a6ba:	5d                   	pop    %ebp
 804a6bb:	c3                   	ret    

0804a6bc <_ZNSt11_Deque_baseINSt3tr18functionIFvvEEESaIS3_EED1Ev>:
 804a6bc:	55                   	push   %ebp
 804a6bd:	89 e5                	mov    %esp,%ebp
 804a6bf:	53                   	push   %ebx
 804a6c0:	83 ec 14             	sub    $0x14,%esp
 804a6c3:	8b 45 08             	mov    0x8(%ebp),%eax
 804a6c6:	8b 00                	mov    (%eax),%eax
 804a6c8:	85 c0                	test   %eax,%eax
 804a6ca:	74 40                	je     804a70c <_ZNSt11_Deque_baseINSt3tr18functionIFvvEEESaIS3_EED1Ev+0x50>
 804a6cc:	8b 45 08             	mov    0x8(%ebp),%eax
 804a6cf:	8b 40 24             	mov    0x24(%eax),%eax
 804a6d2:	8d 50 04             	lea    0x4(%eax),%edx
 804a6d5:	8b 45 08             	mov    0x8(%ebp),%eax
 804a6d8:	8b 40 14             	mov    0x14(%eax),%eax
 804a6db:	89 54 24 08          	mov    %edx,0x8(%esp)
 804a6df:	89 44 24 04          	mov    %eax,0x4(%esp)
 804a6e3:	8b 45 08             	mov    0x8(%ebp),%eax
 804a6e6:	89 04 24             	mov    %eax,(%esp)
 804a6e9:	e8 46 0c 00 00       	call   804b334 <_ZNSt11_Deque_baseINSt3tr18functionIFvvEEESaIS3_EE16_M_destroy_nodesEPPS3_S7_>
 804a6ee:	8b 45 08             	mov    0x8(%ebp),%eax
 804a6f1:	8b 50 04             	mov    0x4(%eax),%edx
 804a6f4:	8b 45 08             	mov    0x8(%ebp),%eax
 804a6f7:	8b 00                	mov    (%eax),%eax
 804a6f9:	89 54 24 08          	mov    %edx,0x8(%esp)
 804a6fd:	89 44 24 04          	mov    %eax,0x4(%esp)
 804a701:	8b 45 08             	mov    0x8(%ebp),%eax
 804a704:	89 04 24             	mov    %eax,(%esp)
 804a707:	e8 5e 0c 00 00       	call   804b36a <_ZNSt11_Deque_baseINSt3tr18functionIFvvEEESaIS3_EE17_M_deallocate_mapEPPS3_j>
 804a70c:	8b 45 08             	mov    0x8(%ebp),%eax
 804a70f:	89 04 24             	mov    %eax,(%esp)
 804a712:	e8 4d ff ff ff       	call   804a664 <_ZNSt11_Deque_baseINSt3tr18functionIFvvEEESaIS3_EE11_Deque_implD1Ev>
 804a717:	83 c4 14             	add    $0x14,%esp
 804a71a:	5b                   	pop    %ebx
 804a71b:	5d                   	pop    %ebp
 804a71c:	c3                   	ret    
 804a71d:	89 c3                	mov    %eax,%ebx
 804a71f:	8b 45 08             	mov    0x8(%ebp),%eax
 804a722:	89 04 24             	mov    %eax,(%esp)
 804a725:	e8 3a ff ff ff       	call   804a664 <_ZNSt11_Deque_baseINSt3tr18functionIFvvEEESaIS3_EE11_Deque_implD1Ev>
 804a72a:	89 d8                	mov    %ebx,%eax
 804a72c:	89 04 24             	mov    %eax,(%esp)
 804a72f:	e8 dc e9 ff ff       	call   8049110 <_Unwind_Resume@plt>

0804a734 <_ZNSt5dequeINSt3tr18functionIFvvEEESaIS3_EE5beginEv>:
 804a734:	55                   	push   %ebp
 804a735:	89 e5                	mov    %esp,%ebp
 804a737:	83 ec 18             	sub    $0x18,%esp
 804a73a:	8b 45 0c             	mov    0xc(%ebp),%eax
 804a73d:	83 c0 08             	add    $0x8,%eax
 804a740:	89 44 24 04          	mov    %eax,0x4(%esp)
 804a744:	8b 45 08             	mov    0x8(%ebp),%eax
 804a747:	89 04 24             	mov    %eax,(%esp)
 804a74a:	e8 31 00 00 00       	call   804a780 <_ZNSt15_Deque_iteratorINSt3tr18functionIFvvEEERS3_PS3_EC1ERKS6_>
 804a74f:	8b 45 08             	mov    0x8(%ebp),%eax
 804a752:	c9                   	leave  
 804a753:	c2 04 00             	ret    $0x4

0804a756 <_ZNSt5dequeINSt3tr18functionIFvvEEESaIS3_EE3endEv>:
 804a756:	55                   	push   %ebp
 804a757:	89 e5                	mov    %esp,%ebp
 804a759:	83 ec 18             	sub    $0x18,%esp
 804a75c:	8b 45 0c             	mov    0xc(%ebp),%eax
 804a75f:	83 c0 18             	add    $0x18,%eax
 804a762:	89 44 24 04          	mov    %eax,0x4(%esp)
 804a766:	8b 45 08             	mov    0x8(%ebp),%eax
 804a769:	89 04 24             	mov    %eax,(%esp)
 804a76c:	e8 0f 00 00 00       	call   804a780 <_ZNSt15_Deque_iteratorINSt3tr18functionIFvvEEERS3_PS3_EC1ERKS6_>
 804a771:	8b 45 08             	mov    0x8(%ebp),%eax
 804a774:	c9                   	leave  
 804a775:	c2 04 00             	ret    $0x4

0804a778 <_ZNSt11_Deque_baseINSt3tr18functionIFvvEEESaIS3_EE19_M_get_Tp_allocatorEv>:
 804a778:	55                   	push   %ebp
 804a779:	89 e5                	mov    %esp,%ebp
 804a77b:	8b 45 08             	mov    0x8(%ebp),%eax
 804a77e:	5d                   	pop    %ebp
 804a77f:	c3                   	ret    

0804a780 <_ZNSt15_Deque_iteratorINSt3tr18functionIFvvEEERS3_PS3_EC1ERKS6_>:
 804a780:	55                   	push   %ebp
 804a781:	89 e5                	mov    %esp,%ebp
 804a783:	8b 45 0c             	mov    0xc(%ebp),%eax
 804a786:	8b 10                	mov    (%eax),%edx
 804a788:	8b 45 08             	mov    0x8(%ebp),%eax
 804a78b:	89 10                	mov    %edx,(%eax)
 804a78d:	8b 45 0c             	mov    0xc(%ebp),%eax
 804a790:	8b 50 04             	mov    0x4(%eax),%edx
 804a793:	8b 45 08             	mov    0x8(%ebp),%eax
 804a796:	89 50 04             	mov    %edx,0x4(%eax)
 804a799:	8b 45 0c             	mov    0xc(%ebp),%eax
 804a79c:	8b 50 08             	mov    0x8(%eax),%edx
 804a79f:	8b 45 08             	mov    0x8(%ebp),%eax
 804a7a2:	89 50 08             	mov    %edx,0x8(%eax)
 804a7a5:	8b 45 0c             	mov    0xc(%ebp),%eax
 804a7a8:	8b 50 0c             	mov    0xc(%eax),%edx
 804a7ab:	8b 45 08             	mov    0x8(%ebp),%eax
 804a7ae:	89 50 0c             	mov    %edx,0xc(%eax)
 804a7b1:	5d                   	pop    %ebp
 804a7b2:	c3                   	ret    
 804a7b3:	90                   	nop

0804a7b4 <_ZNSt5dequeINSt3tr18functionIFvvEEESaIS3_EE15_M_destroy_dataESt15_Deque_iteratorIS3_RS3_PS3_ES9_RKS4_>:
 804a7b4:	55                   	push   %ebp
 804a7b5:	89 e5                	mov    %esp,%ebp
 804a7b7:	83 ec 38             	sub    $0x38,%esp
 804a7ba:	8b 45 10             	mov    0x10(%ebp),%eax
 804a7bd:	89 44 24 04          	mov    %eax,0x4(%esp)
 804a7c1:	8d 45 e8             	lea    -0x18(%ebp),%eax
 804a7c4:	89 04 24             	mov    %eax,(%esp)
 804a7c7:	e8 b4 ff ff ff       	call   804a780 <_ZNSt15_Deque_iteratorINSt3tr18functionIFvvEEERS3_PS3_EC1ERKS6_>
 804a7cc:	8b 45 0c             	mov    0xc(%ebp),%eax
 804a7cf:	89 44 24 04          	mov    %eax,0x4(%esp)
 804a7d3:	8d 45 d8             	lea    -0x28(%ebp),%eax
 804a7d6:	89 04 24             	mov    %eax,(%esp)
 804a7d9:	e8 a2 ff ff ff       	call   804a780 <_ZNSt15_Deque_iteratorINSt3tr18functionIFvvEEERS3_PS3_EC1ERKS6_>
 804a7de:	8d 45 e8             	lea    -0x18(%ebp),%eax
 804a7e1:	89 44 24 08          	mov    %eax,0x8(%esp)
 804a7e5:	8d 45 d8             	lea    -0x28(%ebp),%eax
 804a7e8:	89 44 24 04          	mov    %eax,0x4(%esp)
 804a7ec:	8b 45 08             	mov    0x8(%ebp),%eax
 804a7ef:	89 04 24             	mov    %eax,(%esp)
 804a7f2:	e8 b5 0b 00 00       	call   804b3ac <_ZNSt5dequeINSt3tr18functionIFvvEEESaIS3_EE19_M_destroy_data_auxESt15_Deque_iteratorIS3_RS3_PS3_ES9_>
 804a7f7:	c9                   	leave  
 804a7f8:	c3                   	ret    
 804a7f9:	90                   	nop

0804a7fa <_ZNSt5dequeINSt3tr18functionIFvvEEESaIS3_EEC1ERKS5_>:
 804a7fa:	55                   	push   %ebp
 804a7fb:	89 e5                	mov    %esp,%ebp
 804a7fd:	53                   	push   %ebx
 804a7fe:	83 ec 74             	sub    $0x74,%esp
 804a801:	8b 45 0c             	mov    0xc(%ebp),%eax
 804a804:	89 04 24             	mov    %eax,(%esp)
 804a807:	e8 8e 0c 00 00       	call   804b49a <_ZNKSt5dequeINSt3tr18functionIFvvEEESaIS3_EE4sizeEv>
 804a80c:	89 c3                	mov    %eax,%ebx
 804a80e:	8b 45 0c             	mov    0xc(%ebp),%eax
 804a811:	89 04 24             	mov    %eax,(%esp)
 804a814:	e8 79 0c 00 00       	call   804b492 <_ZNKSt11_Deque_baseINSt3tr18functionIFvvEEESaIS3_EE19_M_get_Tp_allocatorEv>
 804a819:	8b 55 08             	mov    0x8(%ebp),%edx
 804a81c:	89 5c 24 08          	mov    %ebx,0x8(%esp)
 804a820:	89 44 24 04          	mov    %eax,0x4(%esp)
 804a824:	89 14 24             	mov    %edx,(%esp)
 804a827:	e8 8e 0c 00 00       	call   804b4ba <_ZNSt11_Deque_baseINSt3tr18functionIFvvEEESaIS3_EEC1ERKS4_j>
 804a82c:	8b 45 08             	mov    0x8(%ebp),%eax
 804a82f:	89 04 24             	mov    %eax,(%esp)
 804a832:	e8 41 ff ff ff       	call   804a778 <_ZNSt11_Deque_baseINSt3tr18functionIFvvEEESaIS3_EE19_M_get_Tp_allocatorEv>
 804a837:	89 c3                	mov    %eax,%ebx
 804a839:	8b 45 08             	mov    0x8(%ebp),%eax
 804a83c:	83 c0 08             	add    $0x8,%eax
 804a83f:	89 44 24 04          	mov    %eax,0x4(%esp)
 804a843:	8d 45 e8             	lea    -0x18(%ebp),%eax
 804a846:	89 04 24             	mov    %eax,(%esp)
 804a849:	e8 32 ff ff ff       	call   804a780 <_ZNSt15_Deque_iteratorINSt3tr18functionIFvvEEERS3_PS3_EC1ERKS6_>
 804a84e:	8d 45 d8             	lea    -0x28(%ebp),%eax
 804a851:	8b 55 0c             	mov    0xc(%ebp),%edx
 804a854:	89 54 24 04          	mov    %edx,0x4(%esp)
 804a858:	89 04 24             	mov    %eax,(%esp)
 804a85b:	e8 c6 0c 00 00       	call   804b526 <_ZNKSt5dequeINSt3tr18functionIFvvEEESaIS3_EE3endEv>
 804a860:	83 ec 04             	sub    $0x4,%esp
 804a863:	8d 45 c8             	lea    -0x38(%ebp),%eax
 804a866:	8b 55 0c             	mov    0xc(%ebp),%edx
 804a869:	89 54 24 04          	mov    %edx,0x4(%esp)
 804a86d:	89 04 24             	mov    %eax,(%esp)
 804a870:	e8 8f 0c 00 00       	call   804b504 <_ZNKSt5dequeINSt3tr18functionIFvvEEESaIS3_EE5beginEv>
 804a875:	83 ec 04             	sub    $0x4,%esp
 804a878:	8d 45 b8             	lea    -0x48(%ebp),%eax
 804a87b:	89 5c 24 28          	mov    %ebx,0x28(%esp)
 804a87f:	8d 55 e8             	lea    -0x18(%ebp),%edx
 804a882:	89 54 24 24          	mov    %edx,0x24(%esp)
 804a886:	8b 55 d8             	mov    -0x28(%ebp),%edx
 804a889:	89 54 24 14          	mov    %edx,0x14(%esp)
 804a88d:	8b 55 dc             	mov    -0x24(%ebp),%edx
 804a890:	89 54 24 18          	mov    %edx,0x18(%esp)
 804a894:	8b 55 e0             	mov    -0x20(%ebp),%edx
 804a897:	89 54 24 1c          	mov    %edx,0x1c(%esp)
 804a89b:	8b 55 e4             	mov    -0x1c(%ebp),%edx
 804a89e:	89 54 24 20          	mov    %edx,0x20(%esp)
 804a8a2:	8b 55 c8             	mov    -0x38(%ebp),%edx
 804a8a5:	89 54 24 04          	mov    %edx,0x4(%esp)
 804a8a9:	8b 55 cc             	mov    -0x34(%ebp),%edx
 804a8ac:	89 54 24 08          	mov    %edx,0x8(%esp)
 804a8b0:	8b 55 d0             	mov    -0x30(%ebp),%edx
 804a8b3:	89 54 24 0c          	mov    %edx,0xc(%esp)
 804a8b7:	8b 55 d4             	mov    -0x2c(%ebp),%edx
 804a8ba:	89 54 24 10          	mov    %edx,0x10(%esp)
 804a8be:	89 04 24             	mov    %eax,(%esp)
 804a8c1:	e8 82 0c 00 00       	call   804b548 <_ZSt22__uninitialized_copy_aISt15_Deque_iteratorINSt3tr18functionIFvvEEERKS4_PS5_ES0_IS4_RS4_PS4_ES4_ET0_T_SD_SC_RSaIT1_E>
 804a8c6:	83 ec 04             	sub    $0x4,%esp
 804a8c9:	8b 5d fc             	mov    -0x4(%ebp),%ebx
 804a8cc:	c9                   	leave  
 804a8cd:	c3                   	ret    
 804a8ce:	89 c3                	mov    %eax,%ebx
 804a8d0:	8b 45 08             	mov    0x8(%ebp),%eax
 804a8d3:	89 04 24             	mov    %eax,(%esp)
 804a8d6:	e8 e1 fd ff ff       	call   804a6bc <_ZNSt11_Deque_baseINSt3tr18functionIFvvEEESaIS3_EED1Ev>
 804a8db:	89 d8                	mov    %ebx,%eax
 804a8dd:	89 04 24             	mov    %eax,(%esp)
 804a8e0:	e8 2b e8 ff ff       	call   8049110 <_Unwind_Resume@plt>
 804a8e5:	90                   	nop

0804a8e6 <_ZNKSt5dequeINSt3tr18functionIFvvEEESaIS3_EE5emptyEv>:
 804a8e6:	55                   	push   %ebp
 804a8e7:	89 e5                	mov    %esp,%ebp
 804a8e9:	83 ec 18             	sub    $0x18,%esp
 804a8ec:	8b 45 08             	mov    0x8(%ebp),%eax
 804a8ef:	8d 50 08             	lea    0x8(%eax),%edx
 804a8f2:	8b 45 08             	mov    0x8(%ebp),%eax
 804a8f5:	83 c0 18             	add    $0x18,%eax
 804a8f8:	89 54 24 04          	mov    %edx,0x4(%esp)
 804a8fc:	89 04 24             	mov    %eax,(%esp)
 804a8ff:	e8 b0 0c 00 00       	call   804b5b4 <_ZSteqINSt3tr18functionIFvvEEERS3_PS3_EbRKSt15_Deque_iteratorIT_T0_T1_ESC_>
 804a904:	c9                   	leave  
 804a905:	c3                   	ret    

0804a906 <_ZNSt5dequeINSt3tr18functionIFvvEEESaIS3_EE5frontEv>:
 804a906:	55                   	push   %ebp
 804a907:	89 e5                	mov    %esp,%ebp
 804a909:	83 ec 28             	sub    $0x28,%esp
 804a90c:	8d 45 e8             	lea    -0x18(%ebp),%eax
 804a90f:	8b 55 08             	mov    0x8(%ebp),%edx
 804a912:	89 54 24 04          	mov    %edx,0x4(%esp)
 804a916:	89 04 24             	mov    %eax,(%esp)
 804a919:	e8 16 fe ff ff       	call   804a734 <_ZNSt5dequeINSt3tr18functionIFvvEEESaIS3_EE5beginEv>
 804a91e:	83 ec 04             	sub    $0x4,%esp
 804a921:	8d 45 e8             	lea    -0x18(%ebp),%eax
 804a924:	89 04 24             	mov    %eax,(%esp)
 804a927:	e8 9c 0c 00 00       	call   804b5c8 <_ZNKSt15_Deque_iteratorINSt3tr18functionIFvvEEERS3_PS3_EdeEv>
 804a92c:	c9                   	leave  
 804a92d:	c3                   	ret    

0804a92e <_ZNKSt3tr18functionIFvvEEcvMNS2_12_Hidden_typeEPS3_Ev>:
 804a92e:	55                   	push   %ebp
 804a92f:	89 e5                	mov    %esp,%ebp
 804a931:	83 ec 18             	sub    $0x18,%esp
 804a934:	8b 45 08             	mov    0x8(%ebp),%eax
 804a937:	89 04 24             	mov    %eax,(%esp)
 804a93a:	e8 d1 ec ff ff       	call   8049610 <_ZNKSt3tr114_Function_base8_M_emptyEv>
 804a93f:	84 c0                	test   %al,%al
 804a941:	74 07                	je     804a94a <_ZNKSt3tr18functionIFvvEEcvMNS2_12_Hidden_typeEPS3_Ev+0x1c>
 804a943:	b8 ff ff ff ff       	mov    $0xffffffff,%eax
 804a948:	eb 05                	jmp    804a94f <_ZNKSt3tr18functionIFvvEEcvMNS2_12_Hidden_typeEPS3_Ev+0x21>
 804a94a:	b8 00 00 00 00       	mov    $0x0,%eax
 804a94f:	c9                   	leave  
 804a950:	c3                   	ret    
 804a951:	90                   	nop

0804a952 <_ZNSt5dequeINSt3tr18functionIFvvEEESaIS3_EE9pop_frontEv>:
 804a952:	55                   	push   %ebp
 804a953:	89 e5                	mov    %esp,%ebp
 804a955:	83 ec 18             	sub    $0x18,%esp
 804a958:	8b 45 08             	mov    0x8(%ebp),%eax
 804a95b:	8b 50 08             	mov    0x8(%eax),%edx
 804a95e:	8b 45 08             	mov    0x8(%ebp),%eax
 804a961:	8b 40 10             	mov    0x10(%eax),%eax
 804a964:	83 e8 10             	sub    $0x10,%eax
 804a967:	39 c2                	cmp    %eax,%edx
 804a969:	74 26                	je     804a991 <_ZNSt5dequeINSt3tr18functionIFvvEEESaIS3_EE9pop_frontEv+0x3f>
 804a96b:	8b 45 08             	mov    0x8(%ebp),%eax
 804a96e:	8b 50 08             	mov    0x8(%eax),%edx
 804a971:	8b 45 08             	mov    0x8(%ebp),%eax
 804a974:	89 54 24 04          	mov    %edx,0x4(%esp)
 804a978:	89 04 24             	mov    %eax,(%esp)
 804a97b:	e8 52 0c 00 00       	call   804b5d2 <_ZN9__gnu_cxx13new_allocatorINSt3tr18functionIFvvEEEE7destroyEPS4_>
 804a980:	8b 45 08             	mov    0x8(%ebp),%eax
 804a983:	8b 40 08             	mov    0x8(%eax),%eax
 804a986:	8d 50 10             	lea    0x10(%eax),%edx
 804a989:	8b 45 08             	mov    0x8(%ebp),%eax
 804a98c:	89 50 08             	mov    %edx,0x8(%eax)
 804a98f:	eb 0b                	jmp    804a99c <_ZNSt5dequeINSt3tr18functionIFvvEEESaIS3_EE9pop_frontEv+0x4a>
 804a991:	8b 45 08             	mov    0x8(%ebp),%eax
 804a994:	89 04 24             	mov    %eax,(%esp)
 804a997:	e8 4a 0c 00 00       	call   804b5e6 <_ZNSt5dequeINSt3tr18functionIFvvEEESaIS3_EE16_M_pop_front_auxEv>
 804a99c:	c9                   	leave  
 804a99d:	c3                   	ret    

0804a99e <_ZNSt5dequeINSt3tr18functionIFvvEEESaIS3_EE9push_backERKS3_>:
 804a99e:	55                   	push   %ebp
 804a99f:	89 e5                	mov    %esp,%ebp
 804a9a1:	83 ec 18             	sub    $0x18,%esp
 804a9a4:	8b 45 08             	mov    0x8(%ebp),%eax
 804a9a7:	8b 50 18             	mov    0x18(%eax),%edx
 804a9aa:	8b 45 08             	mov    0x8(%ebp),%eax
 804a9ad:	8b 40 20             	mov    0x20(%eax),%eax
 804a9b0:	83 e8 10             	sub    $0x10,%eax
 804a9b3:	39 c2                	cmp    %eax,%edx
 804a9b5:	74 2d                	je     804a9e4 <_ZNSt5dequeINSt3tr18functionIFvvEEESaIS3_EE9push_backERKS3_+0x46>
 804a9b7:	8b 45 08             	mov    0x8(%ebp),%eax
 804a9ba:	8b 50 18             	mov    0x18(%eax),%edx
 804a9bd:	8b 45 08             	mov    0x8(%ebp),%eax
 804a9c0:	8b 4d 0c             	mov    0xc(%ebp),%ecx
 804a9c3:	89 4c 24 08          	mov    %ecx,0x8(%esp)
 804a9c7:	89 54 24 04          	mov    %edx,0x4(%esp)
 804a9cb:	89 04 24             	mov    %eax,(%esp)
 804a9ce:	e8 6d 0c 00 00       	call   804b640 <_ZN9__gnu_cxx13new_allocatorINSt3tr18functionIFvvEEEE9constructEPS4_RKS4_>
 804a9d3:	8b 45 08             	mov    0x8(%ebp),%eax
 804a9d6:	8b 40 18             	mov    0x18(%eax),%eax
 804a9d9:	8d 50 10             	lea    0x10(%eax),%edx
 804a9dc:	8b 45 08             	mov    0x8(%ebp),%eax
 804a9df:	89 50 18             	mov    %edx,0x18(%eax)
 804a9e2:	eb 12                	jmp    804a9f6 <_ZNSt5dequeINSt3tr18functionIFvvEEESaIS3_EE9push_backERKS3_+0x58>
 804a9e4:	8b 45 0c             	mov    0xc(%ebp),%eax
 804a9e7:	89 44 24 04          	mov    %eax,0x4(%esp)
 804a9eb:	8b 45 08             	mov    0x8(%ebp),%eax
 804a9ee:	89 04 24             	mov    %eax,(%esp)
 804a9f1:	e8 9e 0c 00 00       	call   804b694 <_ZNSt5dequeINSt3tr18functionIFvvEEESaIS3_EE16_M_push_back_auxERKS3_>
 804a9f6:	c9                   	leave  
 804a9f7:	c3                   	ret    

0804a9f8 <_ZN9__gnu_cxx17__normal_iteratorIPiSt6vectorIiSaIiEEEC1ERKS1_>:
 804a9f8:	55                   	push   %ebp
 804a9f9:	89 e5                	mov    %esp,%ebp
 804a9fb:	8b 45 0c             	mov    0xc(%ebp),%eax
 804a9fe:	8b 10                	mov    (%eax),%edx
 804aa00:	8b 45 08             	mov    0x8(%ebp),%eax
 804aa03:	89 10                	mov    %edx,(%eax)
 804aa05:	5d                   	pop    %ebp
 804aa06:	c3                   	ret    
 804aa07:	90                   	nop

0804aa08 <_ZNK9__gnu_cxx17__normal_iteratorIPiSt6vectorIiSaIiEEE4baseEv>:
 804aa08:	55                   	push   %ebp
 804aa09:	89 e5                	mov    %esp,%ebp
 804aa0b:	8b 45 08             	mov    0x8(%ebp),%eax
 804aa0e:	5d                   	pop    %ebp
 804aa0f:	c3                   	ret    

0804aa10 <_ZNSt3tr126_Maybe_wrap_member_pointerIM9MirrorImpFviEE9__do_wrapES3_>:
 804aa10:	55                   	push   %ebp
 804aa11:	89 e5                	mov    %esp,%ebp
 804aa13:	83 ec 18             	sub    $0x18,%esp
 804aa16:	8b 45 0c             	mov    0xc(%ebp),%eax
 804aa19:	8b 55 10             	mov    0x10(%ebp),%edx
 804aa1c:	89 44 24 04          	mov    %eax,0x4(%esp)
 804aa20:	89 54 24 08          	mov    %edx,0x8(%esp)
 804aa24:	8b 45 08             	mov    0x8(%ebp),%eax
 804aa27:	89 04 24             	mov    %eax,(%esp)
 804aa2a:	e8 31 0d 00 00       	call   804b760 <_ZNSt3tr17_Mem_fnIM9MirrorImpFviEEC1ES3_>
 804aa2f:	8b 45 08             	mov    0x8(%ebp),%eax
 804aa32:	c9                   	leave  
 804aa33:	c2 04 00             	ret    $0x4

0804aa36 <_ZNSt3tr122_Maybe_get_result_typeILb1ENS_7_Mem_fnIM9MirrorImpFviEEEEC1Ev>:
 804aa36:	55                   	push   %ebp
 804aa37:	89 e5                	mov    %esp,%ebp
 804aa39:	5d                   	pop    %ebp
 804aa3a:	c3                   	ret    
 804aa3b:	90                   	nop

0804aa3c <_ZNSt3tr122_Weak_result_type_implINS_7_Mem_fnIM9MirrorImpFviEEEEC1Ev>:
 804aa3c:	55                   	push   %ebp
 804aa3d:	89 e5                	mov    %esp,%ebp
 804aa3f:	83 ec 18             	sub    $0x18,%esp
 804aa42:	8b 45 08             	mov    0x8(%ebp),%eax
 804aa45:	89 04 24             	mov    %eax,(%esp)
 804aa48:	e8 e9 ff ff ff       	call   804aa36 <_ZNSt3tr122_Maybe_get_result_typeILb1ENS_7_Mem_fnIM9MirrorImpFviEEEEC1Ev>
 804aa4d:	c9                   	leave  
 804aa4e:	c3                   	ret    
 804aa4f:	90                   	nop

0804aa50 <_ZNSt3tr117_Weak_result_typeINS_7_Mem_fnIM9MirrorImpFviEEEEC1Ev>:
 804aa50:	55                   	push   %ebp
 804aa51:	89 e5                	mov    %esp,%ebp
 804aa53:	83 ec 18             	sub    $0x18,%esp
 804aa56:	8b 45 08             	mov    0x8(%ebp),%eax
 804aa59:	89 04 24             	mov    %eax,(%esp)
 804aa5c:	e8 db ff ff ff       	call   804aa3c <_ZNSt3tr122_Weak_result_type_implINS_7_Mem_fnIM9MirrorImpFviEEEEC1Ev>
 804aa61:	c9                   	leave  
 804aa62:	c3                   	ret    
 804aa63:	90                   	nop

0804aa64 <_ZNSt3tr15_BindIFNS_7_Mem_fnIM9MirrorImpFviEEES2_iEEC1ES5_S2_i>:
 804aa64:	55                   	push   %ebp
 804aa65:	89 e5                	mov    %esp,%ebp
 804aa67:	83 ec 18             	sub    $0x18,%esp
 804aa6a:	8b 45 08             	mov    0x8(%ebp),%eax
 804aa6d:	89 04 24             	mov    %eax,(%esp)
 804aa70:	e8 db ff ff ff       	call   804aa50 <_ZNSt3tr117_Weak_result_typeINS_7_Mem_fnIM9MirrorImpFviEEEEC1Ev>
 804aa75:	8b 4d 08             	mov    0x8(%ebp),%ecx
 804aa78:	8b 45 0c             	mov    0xc(%ebp),%eax
 804aa7b:	8b 55 10             	mov    0x10(%ebp),%edx
 804aa7e:	89 01                	mov    %eax,(%ecx)
 804aa80:	89 51 04             	mov    %edx,0x4(%ecx)
 804aa83:	8b 45 08             	mov    0x8(%ebp),%eax
 804aa86:	8d 50 08             	lea    0x8(%eax),%edx
 804aa89:	8d 45 18             	lea    0x18(%ebp),%eax
 804aa8c:	89 44 24 08          	mov    %eax,0x8(%esp)
 804aa90:	8b 45 14             	mov    0x14(%ebp),%eax
 804aa93:	89 44 24 04          	mov    %eax,0x4(%esp)
 804aa97:	89 14 24             	mov    %edx,(%esp)
 804aa9a:	e8 e3 0c 00 00       	call   804b782 <_ZNSt3tr15tupleII9MirrorImpiEEC1ERKS1_RKi>
 804aa9f:	c9                   	leave  
 804aaa0:	c3                   	ret    
 804aaa1:	90                   	nop

0804aaa2 <_ZNSt3tr111_Tuple_implILi0EI9MirrorImpiEEC1ERKS2_>:
 804aaa2:	55                   	push   %ebp
 804aaa3:	89 e5                	mov    %esp,%ebp
 804aaa5:	83 ec 18             	sub    $0x18,%esp
 804aaa8:	8b 45 0c             	mov    0xc(%ebp),%eax
 804aaab:	89 04 24             	mov    %eax,(%esp)
 804aaae:	e8 f1 0c 00 00       	call   804b7a4 <_ZNKSt3tr111_Tuple_implILi0EI9MirrorImpiEE7_M_tailEv>
 804aab3:	8b 55 08             	mov    0x8(%ebp),%edx
 804aab6:	89 44 24 04          	mov    %eax,0x4(%esp)
 804aaba:	89 14 24             	mov    %edx,(%esp)
 804aabd:	e8 ea 0c 00 00       	call   804b7ac <_ZNSt3tr111_Tuple_implILi1EIiEEC1ERKS1_>
 804aac2:	c9                   	leave  
 804aac3:	c3                   	ret    

0804aac4 <_ZNSt3tr114_Function_base13_Base_managerINS_5_BindIFNS_7_Mem_fnIM9MirrorImpFviEEES4_iEEEE21_M_not_empty_functionIS9_EEbRKT_>:
 804aac4:	55                   	push   %ebp
 804aac5:	89 e5                	mov    %esp,%ebp
 804aac7:	b8 01 00 00 00       	mov    $0x1,%eax
 804aacc:	5d                   	pop    %ebp
 804aacd:	c3                   	ret    

0804aace <_ZNSt3tr117_Function_handlerIFvvENS_5_BindIFNS_7_Mem_fnIM9MirrorImpFviEEES4_iEEEE9_M_invokeERKNS_9_Any_dataE>:
 804aace:	55                   	push   %ebp
 804aacf:	89 e5                	mov    %esp,%ebp
 804aad1:	83 ec 18             	sub    $0x18,%esp
 804aad4:	8b 45 08             	mov    0x8(%ebp),%eax
 804aad7:	89 04 24             	mov    %eax,(%esp)
 804aada:	e8 ea 0c 00 00       	call   804b7c9 <_ZNSt3tr114_Function_base13_Base_managerINS_5_BindIFNS_7_Mem_fnIM9MirrorImpFviEEES4_iEEEE14_M_get_pointerERKNS_9_Any_dataE>
 804aadf:	89 04 24             	mov    %eax,(%esp)
 804aae2:	e8 fd 0c 00 00       	call   804b7e4 <_ZNSt3tr15_BindIFNS_7_Mem_fnIM9MirrorImpFviEEES2_iEEclIIEEENS_9result_ofIFS5_NS9_IFNS_3_MuIS2_Lb0ELb0EEES2_NS_5tupleIIDpT_EEEEE4typeENS9_IFNSA_IiLb0ELb0EEEiSF_EE4typeEEE4typeEDpRSD_>
 804aae7:	c9                   	leave  
 804aae8:	c3                   	ret    

0804aae9 <_ZNSt3tr114_Function_base13_Base_managerINS_5_BindIFNS_7_Mem_fnIM9MirrorImpFviEEES4_iEEEE10_M_managerERNS_9_Any_dataERKSB_NS_18_Manager_operationE>:
 804aae9:	55                   	push   %ebp
 804aaea:	89 e5                	mov    %esp,%ebp
 804aaec:	53                   	push   %ebx
 804aaed:	83 ec 14             	sub    $0x14,%esp
 804aaf0:	8b 45 10             	mov    0x10(%ebp),%eax
 804aaf3:	83 f8 01             	cmp    $0x1,%eax
 804aaf6:	74 2a                	je     804ab22 <_ZNSt3tr114_Function_base13_Base_managerINS_5_BindIFNS_7_Mem_fnIM9MirrorImpFviEEES4_iEEEE10_M_managerERNS_9_Any_dataERKSB_NS_18_Manager_operationE+0x39>
 804aaf8:	83 f8 01             	cmp    $0x1,%eax
 804aafb:	7f 06                	jg     804ab03 <_ZNSt3tr114_Function_base13_Base_managerINS_5_BindIFNS_7_Mem_fnIM9MirrorImpFviEEES4_iEEEE10_M_managerERNS_9_Any_dataERKSB_NS_18_Manager_operationE+0x1a>
 804aafd:	85 c0                	test   %eax,%eax
 804aaff:	74 0e                	je     804ab0f <_ZNSt3tr114_Function_base13_Base_managerINS_5_BindIFNS_7_Mem_fnIM9MirrorImpFviEEES4_iEEEE10_M_managerERNS_9_Any_dataERKSB_NS_18_Manager_operationE+0x26>
 804ab01:	eb 63                	jmp    804ab66 <_ZNSt3tr114_Function_base13_Base_managerINS_5_BindIFNS_7_Mem_fnIM9MirrorImpFviEEES4_iEEEE10_M_managerERNS_9_Any_dataERKSB_NS_18_Manager_operationE+0x7d>
 804ab03:	83 f8 02             	cmp    $0x2,%eax
 804ab06:	74 36                	je     804ab3e <_ZNSt3tr114_Function_base13_Base_managerINS_5_BindIFNS_7_Mem_fnIM9MirrorImpFviEEES4_iEEEE10_M_managerERNS_9_Any_dataERKSB_NS_18_Manager_operationE+0x55>
 804ab08:	83 f8 03             	cmp    $0x3,%eax
 804ab0b:	74 49                	je     804ab56 <_ZNSt3tr114_Function_base13_Base_managerINS_5_BindIFNS_7_Mem_fnIM9MirrorImpFviEEES4_iEEEE10_M_managerERNS_9_Any_dataERKSB_NS_18_Manager_operationE+0x6d>
 804ab0d:	eb 57                	jmp    804ab66 <_ZNSt3tr114_Function_base13_Base_managerINS_5_BindIFNS_7_Mem_fnIM9MirrorImpFviEEES4_iEEEE10_M_managerERNS_9_Any_dataERKSB_NS_18_Manager_operationE+0x7d>
 804ab0f:	8b 45 08             	mov    0x8(%ebp),%eax
 804ab12:	89 04 24             	mov    %eax,(%esp)
 804ab15:	e8 fa 0c 00 00       	call   804b814 <_ZNSt3tr19_Any_data9_M_accessIPKSt9type_infoEERT_v>
 804ab1a:	c7 00 74 d2 04 08    	movl   $0x804d274,(%eax)
 804ab20:	eb 44                	jmp    804ab66 <_ZNSt3tr114_Function_base13_Base_managerINS_5_BindIFNS_7_Mem_fnIM9MirrorImpFviEEES4_iEEEE10_M_managerERNS_9_Any_dataERKSB_NS_18_Manager_operationE+0x7d>
 804ab22:	8b 45 08             	mov    0x8(%ebp),%eax
 804ab25:	89 04 24             	mov    %eax,(%esp)
 804ab28:	e8 fb 0c 00 00       	call   804b828 <_ZNSt3tr19_Any_data9_M_accessIPNS_5_BindIFNS_7_Mem_fnIM9MirrorImpFviEEES4_iEEEEERT_v>
 804ab2d:	89 c3                	mov    %eax,%ebx
 804ab2f:	8b 45 0c             	mov    0xc(%ebp),%eax
 804ab32:	89 04 24             	mov    %eax,(%esp)
 804ab35:	e8 8f 0c 00 00       	call   804b7c9 <_ZNSt3tr114_Function_base13_Base_managerINS_5_BindIFNS_7_Mem_fnIM9MirrorImpFviEEES4_iEEEE14_M_get_pointerERKNS_9_Any_dataE>
 804ab3a:	89 03                	mov    %eax,(%ebx)
 804ab3c:	eb 28                	jmp    804ab66 <_ZNSt3tr114_Function_base13_Base_managerINS_5_BindIFNS_7_Mem_fnIM9MirrorImpFviEEES4_iEEEE10_M_managerERNS_9_Any_dataERKSB_NS_18_Manager_operationE+0x7d>
 804ab3e:	88 4c 24 08          	mov    %cl,0x8(%esp)
 804ab42:	8b 45 0c             	mov    0xc(%ebp),%eax
 804ab45:	89 44 24 04          	mov    %eax,0x4(%esp)
 804ab49:	8b 45 08             	mov    0x8(%ebp),%eax
 804ab4c:	89 04 24             	mov    %eax,(%esp)
 804ab4f:	e8 e7 0c 00 00       	call   804b83b <_ZNSt3tr114_Function_base13_Base_managerINS_5_BindIFNS_7_Mem_fnIM9MirrorImpFviEEES4_iEEEE8_M_cloneERNS_9_Any_dataERKSB_NS_17integral_constantIbLb0EEE>
 804ab54:	eb 10                	jmp    804ab66 <_ZNSt3tr114_Function_base13_Base_managerINS_5_BindIFNS_7_Mem_fnIM9MirrorImpFviEEES4_iEEEE10_M_managerERNS_9_Any_dataERKSB_NS_18_Manager_operationE+0x7d>
 804ab56:	88 54 24 04          	mov    %dl,0x4(%esp)
 804ab5a:	8b 45 08             	mov    0x8(%ebp),%eax
 804ab5d:	89 04 24             	mov    %eax,(%esp)
 804ab60:	e8 2d 0d 00 00       	call   804b892 <_ZNSt3tr114_Function_base13_Base_managerINS_5_BindIFNS_7_Mem_fnIM9MirrorImpFviEEES4_iEEEE10_M_destroyERNS_9_Any_dataENS_17integral_constantIbLb0EEE>
 804ab65:	90                   	nop
 804ab66:	b8 00 00 00 00       	mov    $0x0,%eax
 804ab6b:	83 c4 14             	add    $0x14,%esp
 804ab6e:	5b                   	pop    %ebx
 804ab6f:	5d                   	pop    %ebp
 804ab70:	c3                   	ret    

0804ab71 <_ZNSt3tr114_Function_base13_Base_managerINS_5_BindIFNS_7_Mem_fnIM9MirrorImpFviEEES4_iEEEE15_M_init_functorERNS_9_Any_dataERKS9_>:
 804ab71:	55                   	push   %ebp
 804ab72:	89 e5                	mov    %esp,%ebp
 804ab74:	83 ec 18             	sub    $0x18,%esp
 804ab77:	88 44 24 08          	mov    %al,0x8(%esp)
 804ab7b:	8b 45 0c             	mov    0xc(%ebp),%eax
 804ab7e:	89 44 24 04          	mov    %eax,0x4(%esp)
 804ab82:	8b 45 08             	mov    0x8(%ebp),%eax
 804ab85:	89 04 24             	mov    %eax,(%esp)
 804ab88:	e8 33 0d 00 00       	call   804b8c0 <_ZNSt3tr114_Function_base13_Base_managerINS_5_BindIFNS_7_Mem_fnIM9MirrorImpFviEEES4_iEEEE15_M_init_functorERNS_9_Any_dataERKS9_NS_17integral_constantIbLb0EEE>
 804ab8d:	c9                   	leave  
 804ab8e:	c3                   	ret    
 804ab8f:	90                   	nop

0804ab90 <_ZNKSt6vectorIiSaIiEE4sizeEv>:
 804ab90:	55                   	push   %ebp
 804ab91:	89 e5                	mov    %esp,%ebp
 804ab93:	8b 45 08             	mov    0x8(%ebp),%eax
 804ab96:	8b 40 04             	mov    0x4(%eax),%eax
 804ab99:	89 c2                	mov    %eax,%edx
 804ab9b:	8b 45 08             	mov    0x8(%ebp),%eax
 804ab9e:	8b 00                	mov    (%eax),%eax
 804aba0:	89 d1                	mov    %edx,%ecx
 804aba2:	29 c1                	sub    %eax,%ecx
 804aba4:	89 c8                	mov    %ecx,%eax
 804aba6:	c1 f8 02             	sar    $0x2,%eax
 804aba9:	5d                   	pop    %ebp
 804abaa:	c3                   	ret    
 804abab:	90                   	nop

0804abac <_ZNKSt12_Vector_baseIiSaIiEE19_M_get_Tp_allocatorEv>:
 804abac:	55                   	push   %ebp
 804abad:	89 e5                	mov    %esp,%ebp
 804abaf:	8b 45 08             	mov    0x8(%ebp),%eax
 804abb2:	5d                   	pop    %ebp
 804abb3:	c3                   	ret    

0804abb4 <_ZNSt12_Vector_baseIiSaIiEE12_Vector_implD1Ev>:
 804abb4:	55                   	push   %ebp
 804abb5:	89 e5                	mov    %esp,%ebp
 804abb7:	83 ec 18             	sub    $0x18,%esp
 804abba:	8b 45 08             	mov    0x8(%ebp),%eax
 804abbd:	89 04 24             	mov    %eax,(%esp)
 804abc0:	e8 81 0d 00 00       	call   804b946 <_ZNSaIiED1Ev>
 804abc5:	c9                   	leave  
 804abc6:	c3                   	ret    
 804abc7:	90                   	nop

0804abc8 <_ZNSt12_Vector_baseIiSaIiEEC1EjRKS0_>:
 804abc8:	55                   	push   %ebp
 804abc9:	89 e5                	mov    %esp,%ebp
 804abcb:	53                   	push   %ebx
 804abcc:	83 ec 14             	sub    $0x14,%esp
 804abcf:	8b 45 08             	mov    0x8(%ebp),%eax
 804abd2:	8b 55 10             	mov    0x10(%ebp),%edx
 804abd5:	89 54 24 04          	mov    %edx,0x4(%esp)
 804abd9:	89 04 24             	mov    %eax,(%esp)
 804abdc:	e8 2d 0d 00 00       	call   804b90e <_ZNSt12_Vector_baseIiSaIiEE12_Vector_implC1ERKS0_>
 804abe1:	8b 45 0c             	mov    0xc(%ebp),%eax
 804abe4:	89 44 24 04          	mov    %eax,0x4(%esp)
 804abe8:	8b 45 08             	mov    0x8(%ebp),%eax
 804abeb:	89 04 24             	mov    %eax,(%esp)
 804abee:	e8 67 0d 00 00       	call   804b95a <_ZNSt12_Vector_baseIiSaIiEE11_M_allocateEj>
 804abf3:	89 c2                	mov    %eax,%edx
 804abf5:	8b 45 08             	mov    0x8(%ebp),%eax
 804abf8:	89 10                	mov    %edx,(%eax)
 804abfa:	8b 45 08             	mov    0x8(%ebp),%eax
 804abfd:	8b 10                	mov    (%eax),%edx
 804abff:	8b 45 08             	mov    0x8(%ebp),%eax
 804ac02:	89 50 04             	mov    %edx,0x4(%eax)
 804ac05:	8b 45 08             	mov    0x8(%ebp),%eax
 804ac08:	8b 00                	mov    (%eax),%eax
 804ac0a:	8b 55 0c             	mov    0xc(%ebp),%edx
 804ac0d:	c1 e2 02             	shl    $0x2,%edx
 804ac10:	01 c2                	add    %eax,%edx
 804ac12:	8b 45 08             	mov    0x8(%ebp),%eax
 804ac15:	89 50 08             	mov    %edx,0x8(%eax)
 804ac18:	83 c4 14             	add    $0x14,%esp
 804ac1b:	5b                   	pop    %ebx
 804ac1c:	5d                   	pop    %ebp
 804ac1d:	c3                   	ret    
 804ac1e:	89 c3                	mov    %eax,%ebx
 804ac20:	8b 45 08             	mov    0x8(%ebp),%eax
 804ac23:	89 04 24             	mov    %eax,(%esp)
 804ac26:	e8 89 ff ff ff       	call   804abb4 <_ZNSt12_Vector_baseIiSaIiEE12_Vector_implD1Ev>
 804ac2b:	89 d8                	mov    %ebx,%eax
 804ac2d:	89 04 24             	mov    %eax,(%esp)
 804ac30:	e8 db e4 ff ff       	call   8049110 <_Unwind_Resume@plt>
 804ac35:	90                   	nop

0804ac36 <_ZNSt12_Vector_baseIiSaIiEED1Ev>:
 804ac36:	55                   	push   %ebp
 804ac37:	89 e5                	mov    %esp,%ebp
 804ac39:	53                   	push   %ebx
 804ac3a:	83 ec 14             	sub    $0x14,%esp
 804ac3d:	8b 45 08             	mov    0x8(%ebp),%eax
 804ac40:	8b 40 08             	mov    0x8(%eax),%eax
 804ac43:	89 c2                	mov    %eax,%edx
 804ac45:	8b 45 08             	mov    0x8(%ebp),%eax
 804ac48:	8b 00                	mov    (%eax),%eax
 804ac4a:	89 d1                	mov    %edx,%ecx
 804ac4c:	29 c1                	sub    %eax,%ecx
 804ac4e:	89 c8                	mov    %ecx,%eax
 804ac50:	c1 f8 02             	sar    $0x2,%eax
 804ac53:	89 c2                	mov    %eax,%edx
 804ac55:	8b 45 08             	mov    0x8(%ebp),%eax
 804ac58:	8b 00                	mov    (%eax),%eax
 804ac5a:	89 54 24 08          	mov    %edx,0x8(%esp)
 804ac5e:	89 44 24 04          	mov    %eax,0x4(%esp)
 804ac62:	8b 45 08             	mov    0x8(%ebp),%eax
 804ac65:	89 04 24             	mov    %eax,(%esp)
 804ac68:	e8 1d 0d 00 00       	call   804b98a <_ZNSt12_Vector_baseIiSaIiEE13_M_deallocateEPij>
 804ac6d:	8b 45 08             	mov    0x8(%ebp),%eax
 804ac70:	89 04 24             	mov    %eax,(%esp)
 804ac73:	e8 3c ff ff ff       	call   804abb4 <_ZNSt12_Vector_baseIiSaIiEE12_Vector_implD1Ev>
 804ac78:	83 c4 14             	add    $0x14,%esp
 804ac7b:	5b                   	pop    %ebx
 804ac7c:	5d                   	pop    %ebp
 804ac7d:	c3                   	ret    
 804ac7e:	89 c3                	mov    %eax,%ebx
 804ac80:	8b 45 08             	mov    0x8(%ebp),%eax
 804ac83:	89 04 24             	mov    %eax,(%esp)
 804ac86:	e8 29 ff ff ff       	call   804abb4 <_ZNSt12_Vector_baseIiSaIiEE12_Vector_implD1Ev>
 804ac8b:	89 d8                	mov    %ebx,%eax
 804ac8d:	89 04 24             	mov    %eax,(%esp)
 804ac90:	e8 7b e4 ff ff       	call   8049110 <_Unwind_Resume@plt>
 804ac95:	90                   	nop

0804ac96 <_ZNKSt6vectorIiSaIiEE5beginEv>:
 804ac96:	55                   	push   %ebp
 804ac97:	89 e5                	mov    %esp,%ebp
 804ac99:	83 ec 28             	sub    $0x28,%esp
 804ac9c:	8b 45 0c             	mov    0xc(%ebp),%eax
 804ac9f:	8b 00                	mov    (%eax),%eax
 804aca1:	89 45 f4             	mov    %eax,-0xc(%ebp)
 804aca4:	8d 45 f4             	lea    -0xc(%ebp),%eax
 804aca7:	89 44 24 04          	mov    %eax,0x4(%esp)
 804acab:	8b 45 08             	mov    0x8(%ebp),%eax
 804acae:	89 04 24             	mov    %eax,(%esp)
 804acb1:	e8 fc 0c 00 00       	call   804b9b2 <_ZN9__gnu_cxx17__normal_iteratorIPKiSt6vectorIiSaIiEEEC1ERKS2_>
 804acb6:	8b 45 08             	mov    0x8(%ebp),%eax
 804acb9:	c9                   	leave  
 804acba:	c2 04 00             	ret    $0x4
 804acbd:	90                   	nop

0804acbe <_ZNKSt6vectorIiSaIiEE3endEv>:
 804acbe:	55                   	push   %ebp
 804acbf:	89 e5                	mov    %esp,%ebp
 804acc1:	83 ec 28             	sub    $0x28,%esp
 804acc4:	8b 45 0c             	mov    0xc(%ebp),%eax
 804acc7:	8b 40 04             	mov    0x4(%eax),%eax
 804acca:	89 45 f4             	mov    %eax,-0xc(%ebp)
 804accd:	8d 45 f4             	lea    -0xc(%ebp),%eax
 804acd0:	89 44 24 04          	mov    %eax,0x4(%esp)
 804acd4:	8b 45 08             	mov    0x8(%ebp),%eax
 804acd7:	89 04 24             	mov    %eax,(%esp)
 804acda:	e8 d3 0c 00 00       	call   804b9b2 <_ZN9__gnu_cxx17__normal_iteratorIPKiSt6vectorIiSaIiEEEC1ERKS2_>
 804acdf:	8b 45 08             	mov    0x8(%ebp),%eax
 804ace2:	c9                   	leave  
 804ace3:	c2 04 00             	ret    $0x4

0804ace6 <_ZNSt12_Vector_baseIiSaIiEE19_M_get_Tp_allocatorEv>:
 804ace6:	55                   	push   %ebp
 804ace7:	89 e5                	mov    %esp,%ebp
 804ace9:	8b 45 08             	mov    0x8(%ebp),%eax
 804acec:	5d                   	pop    %ebp
 804aced:	c3                   	ret    

0804acee <_ZSt22__uninitialized_copy_aIN9__gnu_cxx17__normal_iteratorIPKiSt6vectorIiSaIiEEEEPiiET0_T_SA_S9_RSaIT1_E>:
 804acee:	55                   	push   %ebp
 804acef:	89 e5                	mov    %esp,%ebp
 804acf1:	83 ec 18             	sub    $0x18,%esp
 804acf4:	8b 45 10             	mov    0x10(%ebp),%eax
 804acf7:	89 44 24 08          	mov    %eax,0x8(%esp)
 804acfb:	8b 45 0c             	mov    0xc(%ebp),%eax
 804acfe:	89 44 24 04          	mov    %eax,0x4(%esp)
 804ad02:	8b 45 08             	mov    0x8(%ebp),%eax
 804ad05:	89 04 24             	mov    %eax,(%esp)
 804ad08:	e8 b4 0c 00 00       	call   804b9c1 <_ZSt18uninitialized_copyIN9__gnu_cxx17__normal_iteratorIPKiSt6vectorIiSaIiEEEEPiET0_T_SA_S9_>
 804ad0d:	c9                   	leave  
 804ad0e:	c3                   	ret    

0804ad0f <_ZSt8_DestroyIPiiEvT_S1_RSaIT0_E>:
 804ad0f:	55                   	push   %ebp
 804ad10:	89 e5                	mov    %esp,%ebp
 804ad12:	83 ec 18             	sub    $0x18,%esp
 804ad15:	8b 45 0c             	mov    0xc(%ebp),%eax
 804ad18:	89 44 24 04          	mov    %eax,0x4(%esp)
 804ad1c:	8b 45 08             	mov    0x8(%ebp),%eax
 804ad1f:	89 04 24             	mov    %eax,(%esp)
 804ad22:	e8 bb 0c 00 00       	call   804b9e2 <_ZSt8_DestroyIPiEvT_S1_>
 804ad27:	c9                   	leave  
 804ad28:	c3                   	ret    

0804ad29 <_ZNSt3tr126_Maybe_wrap_member_pointerIM9MirrorImpFvSt6vectorIiSaIiEEEE9__do_wrapES6_>:
 804ad29:	55                   	push   %ebp
 804ad2a:	89 e5                	mov    %esp,%ebp
 804ad2c:	83 ec 18             	sub    $0x18,%esp
 804ad2f:	8b 45 0c             	mov    0xc(%ebp),%eax
 804ad32:	8b 55 10             	mov    0x10(%ebp),%edx
 804ad35:	89 44 24 04          	mov    %eax,0x4(%esp)
 804ad39:	89 54 24 08          	mov    %edx,0x8(%esp)
 804ad3d:	8b 45 08             	mov    0x8(%ebp),%eax
 804ad40:	89 04 24             	mov    %eax,(%esp)
 804ad43:	e8 ce 0c 00 00       	call   804ba16 <_ZNSt3tr17_Mem_fnIM9MirrorImpFvSt6vectorIiSaIiEEEEC1ES6_>
 804ad48:	8b 45 08             	mov    0x8(%ebp),%eax
 804ad4b:	c9                   	leave  
 804ad4c:	c2 04 00             	ret    $0x4
 804ad4f:	90                   	nop

0804ad50 <_ZNSt3tr122_Maybe_get_result_typeILb1ENS_7_Mem_fnIM9MirrorImpFvSt6vectorIiSaIiEEEEEEC1Ev>:
 804ad50:	55                   	push   %ebp
 804ad51:	89 e5                	mov    %esp,%ebp
 804ad53:	5d                   	pop    %ebp
 804ad54:	c3                   	ret    
 804ad55:	90                   	nop

0804ad56 <_ZNSt3tr122_Weak_result_type_implINS_7_Mem_fnIM9MirrorImpFvSt6vectorIiSaIiEEEEEEC1Ev>:
 804ad56:	55                   	push   %ebp
 804ad57:	89 e5                	mov    %esp,%ebp
 804ad59:	83 ec 18             	sub    $0x18,%esp
 804ad5c:	8b 45 08             	mov    0x8(%ebp),%eax
 804ad5f:	89 04 24             	mov    %eax,(%esp)
 804ad62:	e8 e9 ff ff ff       	call   804ad50 <_ZNSt3tr122_Maybe_get_result_typeILb1ENS_7_Mem_fnIM9MirrorImpFvSt6vectorIiSaIiEEEEEEC1Ev>
 804ad67:	c9                   	leave  
 804ad68:	c3                   	ret    
 804ad69:	90                   	nop

0804ad6a <_ZNSt3tr117_Weak_result_typeINS_7_Mem_fnIM9MirrorImpFvSt6vectorIiSaIiEEEEEEC1Ev>:
 804ad6a:	55                   	push   %ebp
 804ad6b:	89 e5                	mov    %esp,%ebp
 804ad6d:	83 ec 18             	sub    $0x18,%esp
 804ad70:	8b 45 08             	mov    0x8(%ebp),%eax
 804ad73:	89 04 24             	mov    %eax,(%esp)
 804ad76:	e8 db ff ff ff       	call   804ad56 <_ZNSt3tr122_Weak_result_type_implINS_7_Mem_fnIM9MirrorImpFvSt6vectorIiSaIiEEEEEEC1Ev>
 804ad7b:	c9                   	leave  
 804ad7c:	c3                   	ret    
 804ad7d:	90                   	nop

0804ad7e <_ZNSt3tr15_BindIFNS_7_Mem_fnIM9MirrorImpFvSt6vectorIiSaIiEEEEES2_S5_EEC1ES8_S2_S5_>:
 804ad7e:	55                   	push   %ebp
 804ad7f:	89 e5                	mov    %esp,%ebp
 804ad81:	83 ec 18             	sub    $0x18,%esp
 804ad84:	8b 45 08             	mov    0x8(%ebp),%eax
 804ad87:	89 04 24             	mov    %eax,(%esp)
 804ad8a:	e8 db ff ff ff       	call   804ad6a <_ZNSt3tr117_Weak_result_typeINS_7_Mem_fnIM9MirrorImpFvSt6vectorIiSaIiEEEEEEC1Ev>
 804ad8f:	8b 4d 08             	mov    0x8(%ebp),%ecx
 804ad92:	8b 45 0c             	mov    0xc(%ebp),%eax
 804ad95:	8b 55 10             	mov    0x10(%ebp),%edx
 804ad98:	89 01                	mov    %eax,(%ecx)
 804ad9a:	89 51 04             	mov    %edx,0x4(%ecx)
 804ad9d:	8b 45 08             	mov    0x8(%ebp),%eax
 804ada0:	8d 50 08             	lea    0x8(%eax),%edx
 804ada3:	8b 45 18             	mov    0x18(%ebp),%eax
 804ada6:	89 44 24 08          	mov    %eax,0x8(%esp)
 804adaa:	8b 45 14             	mov    0x14(%ebp),%eax
 804adad:	89 44 24 04          	mov    %eax,0x4(%esp)
 804adb1:	89 14 24             	mov    %edx,(%esp)
 804adb4:	e8 7f 0c 00 00       	call   804ba38 <_ZNSt3tr15tupleII9MirrorImpSt6vectorIiSaIiEEEEC1ERKS1_RKS4_>
 804adb9:	c9                   	leave  
 804adba:	c3                   	ret    
 804adbb:	90                   	nop

0804adbc <_ZNSt3tr111_Tuple_implILi0EI9MirrorImpSt6vectorIiSaIiEEEEC1ERKS5_>:
 804adbc:	55                   	push   %ebp
 804adbd:	89 e5                	mov    %esp,%ebp
 804adbf:	83 ec 18             	sub    $0x18,%esp
 804adc2:	8b 45 0c             	mov    0xc(%ebp),%eax
 804adc5:	89 04 24             	mov    %eax,(%esp)
 804adc8:	e8 8d 0c 00 00       	call   804ba5a <_ZNKSt3tr111_Tuple_implILi0EI9MirrorImpSt6vectorIiSaIiEEEE7_M_tailEv>
 804adcd:	8b 55 08             	mov    0x8(%ebp),%edx
 804add0:	89 44 24 04          	mov    %eax,0x4(%esp)
 804add4:	89 14 24             	mov    %edx,(%esp)
 804add7:	e8 86 0c 00 00       	call   804ba62 <_ZNSt3tr111_Tuple_implILi1EISt6vectorIiSaIiEEEEC1ERKS4_>
 804addc:	c9                   	leave  
 804addd:	c3                   	ret    

0804adde <_ZNSt3tr114_Function_base13_Base_managerINS_5_BindIFNS_7_Mem_fnIM9MirrorImpFvSt6vectorIiSaIiEEEEES4_S7_EEEE21_M_not_empty_functionISC_EEbRKT_>:
 804adde:	55                   	push   %ebp
 804addf:	89 e5                	mov    %esp,%ebp
 804ade1:	b8 01 00 00 00       	mov    $0x1,%eax
 804ade6:	5d                   	pop    %ebp
 804ade7:	c3                   	ret    

0804ade8 <_ZNSt3tr117_Function_handlerIFvvENS_5_BindIFNS_7_Mem_fnIM9MirrorImpFvSt6vectorIiSaIiEEEEES4_S7_EEEE9_M_invokeERKNS_9_Any_dataE>:
 804ade8:	55                   	push   %ebp
 804ade9:	89 e5                	mov    %esp,%ebp
 804adeb:	83 ec 18             	sub    $0x18,%esp
 804adee:	8b 45 08             	mov    0x8(%ebp),%eax
 804adf1:	89 04 24             	mov    %eax,(%esp)
 804adf4:	e8 8e 0c 00 00       	call   804ba87 <_ZNSt3tr114_Function_base13_Base_managerINS_5_BindIFNS_7_Mem_fnIM9MirrorImpFvSt6vectorIiSaIiEEEEES4_S7_EEEE14_M_get_pointerERKNS_9_Any_dataE>
 804adf9:	89 04 24             	mov    %eax,(%esp)
 804adfc:	e8 a1 0c 00 00       	call   804baa2 <_ZNSt3tr15_BindIFNS_7_Mem_fnIM9MirrorImpFvSt6vectorIiSaIiEEEEES2_S5_EEclIIEEENS_9result_ofIFS8_NSC_IFNS_3_MuIS2_Lb0ELb0EEES2_NS_5tupleIIDpT_EEEEE4typeENSC_IFNSD_IS5_Lb0ELb0EEES5_SI_EE4typeEEE4typeEDpRSG_>
 804ae01:	c9                   	leave  
 804ae02:	c3                   	ret    

0804ae03 <_ZNSt3tr114_Function_base13_Base_managerINS_5_BindIFNS_7_Mem_fnIM9MirrorImpFvSt6vectorIiSaIiEEEEES4_S7_EEEE10_M_managerERNS_9_Any_dataERKSE_NS_18_Manager_operationE>:
 804ae03:	55                   	push   %ebp
 804ae04:	89 e5                	mov    %esp,%ebp
 804ae06:	53                   	push   %ebx
 804ae07:	83 ec 14             	sub    $0x14,%esp
 804ae0a:	8b 45 10             	mov    0x10(%ebp),%eax
 804ae0d:	83 f8 01             	cmp    $0x1,%eax
 804ae10:	74 2a                	je     804ae3c <_ZNSt3tr114_Function_base13_Base_managerINS_5_BindIFNS_7_Mem_fnIM9MirrorImpFvSt6vectorIiSaIiEEEEES4_S7_EEEE10_M_managerERNS_9_Any_dataERKSE_NS_18_Manager_operationE+0x39>
 804ae12:	83 f8 01             	cmp    $0x1,%eax
 804ae15:	7f 06                	jg     804ae1d <_ZNSt3tr114_Function_base13_Base_managerINS_5_BindIFNS_7_Mem_fnIM9MirrorImpFvSt6vectorIiSaIiEEEEES4_S7_EEEE10_M_managerERNS_9_Any_dataERKSE_NS_18_Manager_operationE+0x1a>
 804ae17:	85 c0                	test   %eax,%eax
 804ae19:	74 0e                	je     804ae29 <_ZNSt3tr114_Function_base13_Base_managerINS_5_BindIFNS_7_Mem_fnIM9MirrorImpFvSt6vectorIiSaIiEEEEES4_S7_EEEE10_M_managerERNS_9_Any_dataERKSE_NS_18_Manager_operationE+0x26>
 804ae1b:	eb 63                	jmp    804ae80 <_ZNSt3tr114_Function_base13_Base_managerINS_5_BindIFNS_7_Mem_fnIM9MirrorImpFvSt6vectorIiSaIiEEEEES4_S7_EEEE10_M_managerERNS_9_Any_dataERKSE_NS_18_Manager_operationE+0x7d>
 804ae1d:	83 f8 02             	cmp    $0x2,%eax
 804ae20:	74 36                	je     804ae58 <_ZNSt3tr114_Function_base13_Base_managerINS_5_BindIFNS_7_Mem_fnIM9MirrorImpFvSt6vectorIiSaIiEEEEES4_S7_EEEE10_M_managerERNS_9_Any_dataERKSE_NS_18_Manager_operationE+0x55>
 804ae22:	83 f8 03             	cmp    $0x3,%eax
 804ae25:	74 49                	je     804ae70 <_ZNSt3tr114_Function_base13_Base_managerINS_5_BindIFNS_7_Mem_fnIM9MirrorImpFvSt6vectorIiSaIiEEEEES4_S7_EEEE10_M_managerERNS_9_Any_dataERKSE_NS_18_Manager_operationE+0x6d>
 804ae27:	eb 57                	jmp    804ae80 <_ZNSt3tr114_Function_base13_Base_managerINS_5_BindIFNS_7_Mem_fnIM9MirrorImpFvSt6vectorIiSaIiEEEEES4_S7_EEEE10_M_managerERNS_9_Any_dataERKSE_NS_18_Manager_operationE+0x7d>
 804ae29:	8b 45 08             	mov    0x8(%ebp),%eax
 804ae2c:	89 04 24             	mov    %eax,(%esp)
 804ae2f:	e8 e0 09 00 00       	call   804b814 <_ZNSt3tr19_Any_data9_M_accessIPKSt9type_infoEERT_v>
 804ae34:	c7 00 28 d2 04 08    	movl   $0x804d228,(%eax)
 804ae3a:	eb 44                	jmp    804ae80 <_ZNSt3tr114_Function_base13_Base_managerINS_5_BindIFNS_7_Mem_fnIM9MirrorImpFvSt6vectorIiSaIiEEEEES4_S7_EEEE10_M_managerERNS_9_Any_dataERKSE_NS_18_Manager_operationE+0x7d>
 804ae3c:	8b 45 08             	mov    0x8(%ebp),%eax
 804ae3f:	89 04 24             	mov    %eax,(%esp)
 804ae42:	e8 8b 0c 00 00       	call   804bad2 <_ZNSt3tr19_Any_data9_M_accessIPNS_5_BindIFNS_7_Mem_fnIM9MirrorImpFvSt6vectorIiSaIiEEEEES4_S7_EEEEERT_v>
 804ae47:	89 c3                	mov    %eax,%ebx
 804ae49:	8b 45 0c             	mov    0xc(%ebp),%eax
 804ae4c:	89 04 24             	mov    %eax,(%esp)
 804ae4f:	e8 33 0c 00 00       	call   804ba87 <_ZNSt3tr114_Function_base13_Base_managerINS_5_BindIFNS_7_Mem_fnIM9MirrorImpFvSt6vectorIiSaIiEEEEES4_S7_EEEE14_M_get_pointerERKNS_9_Any_dataE>
 804ae54:	89 03                	mov    %eax,(%ebx)
 804ae56:	eb 28                	jmp    804ae80 <_ZNSt3tr114_Function_base13_Base_managerINS_5_BindIFNS_7_Mem_fnIM9MirrorImpFvSt6vectorIiSaIiEEEEES4_S7_EEEE10_M_managerERNS_9_Any_dataERKSE_NS_18_Manager_operationE+0x7d>
 804ae58:	88 4c 24 08          	mov    %cl,0x8(%esp)
 804ae5c:	8b 45 0c             	mov    0xc(%ebp),%eax
 804ae5f:	89 44 24 04          	mov    %eax,0x4(%esp)
 804ae63:	8b 45 08             	mov    0x8(%ebp),%eax
 804ae66:	89 04 24             	mov    %eax,(%esp)
 804ae69:	e8 77 0c 00 00       	call   804bae5 <_ZNSt3tr114_Function_base13_Base_managerINS_5_BindIFNS_7_Mem_fnIM9MirrorImpFvSt6vectorIiSaIiEEEEES4_S7_EEEE8_M_cloneERNS_9_Any_dataERKSE_NS_17integral_constantIbLb0EEE>
 804ae6e:	eb 10                	jmp    804ae80 <_ZNSt3tr114_Function_base13_Base_managerINS_5_BindIFNS_7_Mem_fnIM9MirrorImpFvSt6vectorIiSaIiEEEEES4_S7_EEEE10_M_managerERNS_9_Any_dataERKSE_NS_18_Manager_operationE+0x7d>
 804ae70:	88 54 24 04          	mov    %dl,0x4(%esp)
 804ae74:	8b 45 08             	mov    0x8(%ebp),%eax
 804ae77:	89 04 24             	mov    %eax,(%esp)
 804ae7a:	e8 bd 0c 00 00       	call   804bb3c <_ZNSt3tr114_Function_base13_Base_managerINS_5_BindIFNS_7_Mem_fnIM9MirrorImpFvSt6vectorIiSaIiEEEEES4_S7_EEEE10_M_destroyERNS_9_Any_dataENS_17integral_constantIbLb0EEE>
 804ae7f:	90                   	nop
 804ae80:	b8 00 00 00 00       	mov    $0x0,%eax
 804ae85:	83 c4 14             	add    $0x14,%esp
 804ae88:	5b                   	pop    %ebx
 804ae89:	5d                   	pop    %ebp
 804ae8a:	c3                   	ret    

0804ae8b <_ZNSt3tr114_Function_base13_Base_managerINS_5_BindIFNS_7_Mem_fnIM9MirrorImpFvSt6vectorIiSaIiEEEEES4_S7_EEEE15_M_init_functorERNS_9_Any_dataERKSC_>:
 804ae8b:	55                   	push   %ebp
 804ae8c:	89 e5                	mov    %esp,%ebp
 804ae8e:	83 ec 18             	sub    $0x18,%esp
 804ae91:	88 44 24 08          	mov    %al,0x8(%esp)
 804ae95:	8b 45 0c             	mov    0xc(%ebp),%eax
 804ae98:	89 44 24 04          	mov    %eax,0x4(%esp)
 804ae9c:	8b 45 08             	mov    0x8(%ebp),%eax
 804ae9f:	89 04 24             	mov    %eax,(%esp)
 804aea2:	e8 c3 0c 00 00       	call   804bb6a <_ZNSt3tr114_Function_base13_Base_managerINS_5_BindIFNS_7_Mem_fnIM9MirrorImpFvSt6vectorIiSaIiEEEEES4_S7_EEEE15_M_init_functorERNS_9_Any_dataERKSC_NS_17integral_constantIbLb0EEE>
 804aea7:	c9                   	leave  
 804aea8:	c3                   	ret    
 804aea9:	90                   	nop

0804aeaa <_ZNSt12_Vector_baseIiSaIiEEC1Ev>:
 804aeaa:	55                   	push   %ebp
 804aeab:	89 e5                	mov    %esp,%ebp
 804aead:	83 ec 18             	sub    $0x18,%esp
 804aeb0:	8b 45 08             	mov    0x8(%ebp),%eax
 804aeb3:	89 04 24             	mov    %eax,(%esp)
 804aeb6:	e8 fd 0c 00 00       	call   804bbb8 <_ZNSt12_Vector_baseIiSaIiEE12_Vector_implC1Ev>
 804aebb:	c9                   	leave  
 804aebc:	c3                   	ret    
 804aebd:	90                   	nop

0804aebe <_ZN9__gnu_cxx13new_allocatorIiE9constructEPiRKi>:
 804aebe:	55                   	push   %ebp
 804aebf:	89 e5                	mov    %esp,%ebp
 804aec1:	83 ec 18             	sub    $0x18,%esp
 804aec4:	8b 45 0c             	mov    0xc(%ebp),%eax
 804aec7:	89 44 24 04          	mov    %eax,0x4(%esp)
 804aecb:	c7 04 24 04 00 00 00 	movl   $0x4,(%esp)
 804aed2:	e8 cb e4 ff ff       	call   80493a2 <_ZnwjPv>
 804aed7:	85 c0                	test   %eax,%eax
 804aed9:	74 07                	je     804aee2 <_ZN9__gnu_cxx13new_allocatorIiE9constructEPiRKi+0x24>
 804aedb:	8b 55 10             	mov    0x10(%ebp),%edx
 804aede:	8b 12                	mov    (%edx),%edx
 804aee0:	89 10                	mov    %edx,(%eax)
 804aee2:	c9                   	leave  
 804aee3:	c3                   	ret    

0804aee4 <_ZNSt6vectorIiSaIiEE13_M_insert_auxEN9__gnu_cxx17__normal_iteratorIPiS1_EERKi>:
 804aee4:	55                   	push   %ebp
 804aee5:	89 e5                	mov    %esp,%ebp
 804aee7:	56                   	push   %esi
 804aee8:	53                   	push   %ebx
 804aee9:	83 ec 30             	sub    $0x30,%esp
 804aeec:	8b 45 08             	mov    0x8(%ebp),%eax
 804aeef:	8b 50 04             	mov    0x4(%eax),%edx
 804aef2:	8b 45 08             	mov    0x8(%ebp),%eax
 804aef5:	8b 40 08             	mov    0x8(%eax),%eax
 804aef8:	39 c2                	cmp    %eax,%edx
 804aefa:	74 7d                	je     804af79 <_ZNSt6vectorIiSaIiEE13_M_insert_auxEN9__gnu_cxx17__normal_iteratorIPiS1_EERKi+0x95>
 804aefc:	8b 45 08             	mov    0x8(%ebp),%eax
 804aeff:	8b 40 04             	mov    0x4(%eax),%eax
 804af02:	8d 48 fc             	lea    -0x4(%eax),%ecx
 804af05:	8b 45 08             	mov    0x8(%ebp),%eax
 804af08:	8b 50 04             	mov    0x4(%eax),%edx
 804af0b:	8b 45 08             	mov    0x8(%ebp),%eax
 804af0e:	89 4c 24 08          	mov    %ecx,0x8(%esp)
 804af12:	89 54 24 04          	mov    %edx,0x4(%esp)
 804af16:	89 04 24             	mov    %eax,(%esp)
 804af19:	e8 a0 ff ff ff       	call   804aebe <_ZN9__gnu_cxx13new_allocatorIiE9constructEPiRKi>
 804af1e:	8b 45 08             	mov    0x8(%ebp),%eax
 804af21:	8b 40 04             	mov    0x4(%eax),%eax
 804af24:	8d 50 04             	lea    0x4(%eax),%edx
 804af27:	8b 45 08             	mov    0x8(%ebp),%eax
 804af2a:	89 50 04             	mov    %edx,0x4(%eax)
 804af2d:	8b 45 10             	mov    0x10(%ebp),%eax
 804af30:	8b 00                	mov    (%eax),%eax
 804af32:	89 45 e8             	mov    %eax,-0x18(%ebp)
 804af35:	8b 45 08             	mov    0x8(%ebp),%eax
 804af38:	8b 40 04             	mov    0x4(%eax),%eax
 804af3b:	8d 70 fc             	lea    -0x4(%eax),%esi
 804af3e:	8b 45 08             	mov    0x8(%ebp),%eax
 804af41:	8b 40 04             	mov    0x4(%eax),%eax
 804af44:	8d 58 f8             	lea    -0x8(%eax),%ebx
 804af47:	8d 45 0c             	lea    0xc(%ebp),%eax
 804af4a:	89 04 24             	mov    %eax,(%esp)
 804af4d:	e8 b6 fa ff ff       	call   804aa08 <_ZNK9__gnu_cxx17__normal_iteratorIPiSt6vectorIiSaIiEEE4baseEv>
 804af52:	8b 00                	mov    (%eax),%eax
 804af54:	89 74 24 08          	mov    %esi,0x8(%esp)
 804af58:	89 5c 24 04          	mov    %ebx,0x4(%esp)
 804af5c:	89 04 24             	mov    %eax,(%esp)
 804af5f:	e8 84 0c 00 00       	call   804bbe8 <_ZSt13copy_backwardIPiS0_ET0_T_S2_S1_>
 804af64:	8d 45 0c             	lea    0xc(%ebp),%eax
 804af67:	89 04 24             	mov    %eax,(%esp)
 804af6a:	e8 1f f3 ff ff       	call   804a28e <_ZNK9__gnu_cxx17__normal_iteratorIPiSt6vectorIiSaIiEEEdeEv>
 804af6f:	8b 55 e8             	mov    -0x18(%ebp),%edx
 804af72:	89 10                	mov    %edx,(%eax)
 804af74:	e9 f6 01 00 00       	jmp    804b16f <_ZNSt6vectorIiSaIiEE13_M_insert_auxEN9__gnu_cxx17__normal_iteratorIPiS1_EERKi+0x28b>
 804af79:	c7 44 24 08 87 d1 04 	movl   $0x804d187,0x8(%esp)
 804af80:	08 
 804af81:	c7 44 24 04 01 00 00 	movl   $0x1,0x4(%esp)
 804af88:	00 
 804af89:	8b 45 08             	mov    0x8(%ebp),%eax
 804af8c:	89 04 24             	mov    %eax,(%esp)
 804af8f:	e8 8c 0c 00 00       	call   804bc20 <_ZNKSt6vectorIiSaIiEE12_M_check_lenEjPKc>
 804af94:	89 45 ec             	mov    %eax,-0x14(%ebp)
 804af97:	8d 45 e0             	lea    -0x20(%ebp),%eax
 804af9a:	8b 55 08             	mov    0x8(%ebp),%edx
 804af9d:	89 54 24 04          	mov    %edx,0x4(%esp)
 804afa1:	89 04 24             	mov    %eax,(%esp)
 804afa4:	e8 47 f2 ff ff       	call   804a1f0 <_ZNSt6vectorIiSaIiEE5beginEv>
 804afa9:	83 ec 04             	sub    $0x4,%esp
 804afac:	8d 45 e0             	lea    -0x20(%ebp),%eax
 804afaf:	89 44 24 04          	mov    %eax,0x4(%esp)
 804afb3:	8d 45 0c             	lea    0xc(%ebp),%eax
 804afb6:	89 04 24             	mov    %eax,(%esp)
 804afb9:	e8 06 0d 00 00       	call   804bcc4 <_ZN9__gnu_cxxmiIPiSt6vectorIiSaIiEEEENS_17__normal_iteratorIT_T0_E15difference_typeERKS8_SB_>
 804afbe:	89 45 f0             	mov    %eax,-0x10(%ebp)
 804afc1:	8b 45 08             	mov    0x8(%ebp),%eax
 804afc4:	8b 55 ec             	mov    -0x14(%ebp),%edx
 804afc7:	89 54 24 04          	mov    %edx,0x4(%esp)
 804afcb:	89 04 24             	mov    %eax,(%esp)
 804afce:	e8 87 09 00 00       	call   804b95a <_ZNSt12_Vector_baseIiSaIiEE11_M_allocateEj>
 804afd3:	89 45 f4             	mov    %eax,-0xc(%ebp)
 804afd6:	8b 45 f4             	mov    -0xc(%ebp),%eax
 804afd9:	89 45 e4             	mov    %eax,-0x1c(%ebp)
 804afdc:	8b 45 f0             	mov    -0x10(%ebp),%eax
 804afdf:	c1 e0 02             	shl    $0x2,%eax
 804afe2:	89 c2                	mov    %eax,%edx
 804afe4:	03 55 f4             	add    -0xc(%ebp),%edx
 804afe7:	8b 45 08             	mov    0x8(%ebp),%eax
 804afea:	8b 4d 10             	mov    0x10(%ebp),%ecx
 804afed:	89 4c 24 08          	mov    %ecx,0x8(%esp)
 804aff1:	89 54 24 04          	mov    %edx,0x4(%esp)
 804aff5:	89 04 24             	mov    %eax,(%esp)
 804aff8:	e8 c1 fe ff ff       	call   804aebe <_ZN9__gnu_cxx13new_allocatorIiE9constructEPiRKi>
 804affd:	c7 45 e4 00 00 00 00 	movl   $0x0,-0x1c(%ebp)
 804b004:	8b 45 08             	mov    0x8(%ebp),%eax
 804b007:	89 04 24             	mov    %eax,(%esp)
 804b00a:	e8 d7 fc ff ff       	call   804ace6 <_ZNSt12_Vector_baseIiSaIiEE19_M_get_Tp_allocatorEv>
 804b00f:	89 c3                	mov    %eax,%ebx
 804b011:	8d 45 0c             	lea    0xc(%ebp),%eax
 804b014:	89 04 24             	mov    %eax,(%esp)
 804b017:	e8 ec f9 ff ff       	call   804aa08 <_ZNK9__gnu_cxx17__normal_iteratorIPiSt6vectorIiSaIiEEE4baseEv>
 804b01c:	8b 10                	mov    (%eax),%edx
 804b01e:	8b 45 08             	mov    0x8(%ebp),%eax
 804b021:	8b 00                	mov    (%eax),%eax
 804b023:	89 5c 24 0c          	mov    %ebx,0xc(%esp)
 804b027:	8b 4d f4             	mov    -0xc(%ebp),%ecx
 804b02a:	89 4c 24 08          	mov    %ecx,0x8(%esp)
 804b02e:	89 54 24 04          	mov    %edx,0x4(%esp)
 804b032:	89 04 24             	mov    %eax,(%esp)
 804b035:	e8 bc 0c 00 00       	call   804bcf6 <_ZSt22__uninitialized_move_aIPiS0_SaIiEET0_T_S3_S2_RT1_>
 804b03a:	89 45 e4             	mov    %eax,-0x1c(%ebp)
 804b03d:	83 45 e4 04          	addl   $0x4,-0x1c(%ebp)
 804b041:	8b 45 08             	mov    0x8(%ebp),%eax
 804b044:	89 04 24             	mov    %eax,(%esp)
 804b047:	e8 9a fc ff ff       	call   804ace6 <_ZNSt12_Vector_baseIiSaIiEE19_M_get_Tp_allocatorEv>
 804b04c:	89 c3                	mov    %eax,%ebx
 804b04e:	8b 45 08             	mov    0x8(%ebp),%eax
 804b051:	8b 70 04             	mov    0x4(%eax),%esi
 804b054:	8d 45 0c             	lea    0xc(%ebp),%eax
 804b057:	89 04 24             	mov    %eax,(%esp)
 804b05a:	e8 a9 f9 ff ff       	call   804aa08 <_ZNK9__gnu_cxx17__normal_iteratorIPiSt6vectorIiSaIiEEE4baseEv>
 804b05f:	8b 00                	mov    (%eax),%eax
 804b061:	89 5c 24 0c          	mov    %ebx,0xc(%esp)
 804b065:	8b 55 e4             	mov    -0x1c(%ebp),%edx
 804b068:	89 54 24 08          	mov    %edx,0x8(%esp)
 804b06c:	89 74 24 04          	mov    %esi,0x4(%esp)
 804b070:	89 04 24             	mov    %eax,(%esp)
 804b073:	e8 7e 0c 00 00       	call   804bcf6 <_ZSt22__uninitialized_move_aIPiS0_SaIiEET0_T_S3_S2_RT1_>
 804b078:	89 45 e4             	mov    %eax,-0x1c(%ebp)
 804b07b:	8b 45 08             	mov    0x8(%ebp),%eax
 804b07e:	89 04 24             	mov    %eax,(%esp)
 804b081:	e8 60 fc ff ff       	call   804ace6 <_ZNSt12_Vector_baseIiSaIiEE19_M_get_Tp_allocatorEv>
 804b086:	8b 55 08             	mov    0x8(%ebp),%edx
 804b089:	8b 4a 04             	mov    0x4(%edx),%ecx
 804b08c:	8b 55 08             	mov    0x8(%ebp),%edx
 804b08f:	8b 12                	mov    (%edx),%edx
 804b091:	89 44 24 08          	mov    %eax,0x8(%esp)
 804b095:	89 4c 24 04          	mov    %ecx,0x4(%esp)
 804b099:	89 14 24             	mov    %edx,(%esp)
 804b09c:	e8 6e fc ff ff       	call   804ad0f <_ZSt8_DestroyIPiiEvT_S1_RSaIT0_E>
 804b0a1:	8b 45 08             	mov    0x8(%ebp),%eax
 804b0a4:	8b 40 08             	mov    0x8(%eax),%eax
 804b0a7:	89 c2                	mov    %eax,%edx
 804b0a9:	8b 45 08             	mov    0x8(%ebp),%eax
 804b0ac:	8b 00                	mov    (%eax),%eax
 804b0ae:	89 d1                	mov    %edx,%ecx
 804b0b0:	29 c1                	sub    %eax,%ecx
 804b0b2:	89 c8                	mov    %ecx,%eax
 804b0b4:	c1 f8 02             	sar    $0x2,%eax
 804b0b7:	89 c1                	mov    %eax,%ecx
 804b0b9:	8b 45 08             	mov    0x8(%ebp),%eax
 804b0bc:	8b 10                	mov    (%eax),%edx
 804b0be:	8b 45 08             	mov    0x8(%ebp),%eax
 804b0c1:	89 4c 24 08          	mov    %ecx,0x8(%esp)
 804b0c5:	89 54 24 04          	mov    %edx,0x4(%esp)
 804b0c9:	89 04 24             	mov    %eax,(%esp)
 804b0cc:	e8 b9 08 00 00       	call   804b98a <_ZNSt12_Vector_baseIiSaIiEE13_M_deallocateEPij>
 804b0d1:	8b 45 08             	mov    0x8(%ebp),%eax
 804b0d4:	8b 55 f4             	mov    -0xc(%ebp),%edx
 804b0d7:	89 10                	mov    %edx,(%eax)
 804b0d9:	8b 45 08             	mov    0x8(%ebp),%eax
 804b0dc:	8b 55 e4             	mov    -0x1c(%ebp),%edx
 804b0df:	89 50 04             	mov    %edx,0x4(%eax)
 804b0e2:	8b 45 ec             	mov    -0x14(%ebp),%eax
 804b0e5:	c1 e0 02             	shl    $0x2,%eax
 804b0e8:	89 c2                	mov    %eax,%edx
 804b0ea:	03 55 f4             	add    -0xc(%ebp),%edx
 804b0ed:	8b 45 08             	mov    0x8(%ebp),%eax
 804b0f0:	89 50 08             	mov    %edx,0x8(%eax)
 804b0f3:	eb 7a                	jmp    804b16f <_ZNSt6vectorIiSaIiEE13_M_insert_auxEN9__gnu_cxx17__normal_iteratorIPiS1_EERKi+0x28b>
 804b0f5:	89 c3                	mov    %eax,%ebx
 804b0f7:	e8 b4 df ff ff       	call   80490b0 <__cxa_end_catch@plt>
 804b0fc:	89 d8                	mov    %ebx,%eax
 804b0fe:	89 04 24             	mov    %eax,(%esp)
 804b101:	e8 0a e0 ff ff       	call   8049110 <_Unwind_Resume@plt>
 804b106:	89 04 24             	mov    %eax,(%esp)
 804b109:	e8 f2 dd ff ff       	call   8048f00 <__cxa_begin_catch@plt>
 804b10e:	83 7d e4 00          	cmpl   $0x0,-0x1c(%ebp)
 804b112:	75 1c                	jne    804b130 <_ZNSt6vectorIiSaIiEE13_M_insert_auxEN9__gnu_cxx17__normal_iteratorIPiS1_EERKi+0x24c>
 804b114:	8b 45 f0             	mov    -0x10(%ebp),%eax
 804b117:	c1 e0 02             	shl    $0x2,%eax
 804b11a:	89 c2                	mov    %eax,%edx
 804b11c:	03 55 f4             	add    -0xc(%ebp),%edx
 804b11f:	8b 45 08             	mov    0x8(%ebp),%eax
 804b122:	89 54 24 04          	mov    %edx,0x4(%esp)
 804b126:	89 04 24             	mov    %eax,(%esp)
 804b129:	e8 f0 0b 00 00       	call   804bd1e <_ZN9__gnu_cxx13new_allocatorIiE7destroyEPi>
 804b12e:	eb 21                	jmp    804b151 <_ZNSt6vectorIiSaIiEE13_M_insert_auxEN9__gnu_cxx17__normal_iteratorIPiS1_EERKi+0x26d>
 804b130:	8b 45 08             	mov    0x8(%ebp),%eax
 804b133:	89 04 24             	mov    %eax,(%esp)
 804b136:	e8 ab fb ff ff       	call   804ace6 <_ZNSt12_Vector_baseIiSaIiEE19_M_get_Tp_allocatorEv>
 804b13b:	89 44 24 08          	mov    %eax,0x8(%esp)
 804b13f:	8b 45 e4             	mov    -0x1c(%ebp),%eax
 804b142:	89 44 24 04          	mov    %eax,0x4(%esp)
 804b146:	8b 45 f4             	mov    -0xc(%ebp),%eax
 804b149:	89 04 24             	mov    %eax,(%esp)
 804b14c:	e8 be fb ff ff       	call   804ad0f <_ZSt8_DestroyIPiiEvT_S1_RSaIT0_E>
 804b151:	8b 45 08             	mov    0x8(%ebp),%eax
 804b154:	8b 55 ec             	mov    -0x14(%ebp),%edx
 804b157:	89 54 24 08          	mov    %edx,0x8(%esp)
 804b15b:	8b 55 f4             	mov    -0xc(%ebp),%edx
 804b15e:	89 54 24 04          	mov    %edx,0x4(%esp)
 804b162:	89 04 24             	mov    %eax,(%esp)
 804b165:	e8 20 08 00 00       	call   804b98a <_ZNSt12_Vector_baseIiSaIiEE13_M_deallocateEPij>
 804b16a:	e8 11 df ff ff       	call   8049080 <__cxa_rethrow@plt>
 804b16f:	8d 65 f8             	lea    -0x8(%ebp),%esp
 804b172:	5b                   	pop    %ebx
 804b173:	5e                   	pop    %esi
 804b174:	5d                   	pop    %ebp
 804b175:	c3                   	ret    

0804b176 <_ZNSt11_Deque_baseINSt3tr18functionIFvvEEESaIS3_EE11_Deque_implC1Ev>:
 804b176:	55                   	push   %ebp
 804b177:	89 e5                	mov    %esp,%ebp
 804b179:	83 ec 18             	sub    $0x18,%esp
 804b17c:	8b 45 08             	mov    0x8(%ebp),%eax
 804b17f:	89 04 24             	mov    %eax,(%esp)
 804b182:	e8 9d 0b 00 00       	call   804bd24 <_ZNSaINSt3tr18functionIFvvEEEEC1Ev>
 804b187:	8b 45 08             	mov    0x8(%ebp),%eax
 804b18a:	c7 00 00 00 00 00    	movl   $0x0,(%eax)
 804b190:	8b 45 08             	mov    0x8(%ebp),%eax
 804b193:	c7 40 04 00 00 00 00 	movl   $0x0,0x4(%eax)
 804b19a:	8b 45 08             	mov    0x8(%ebp),%eax
 804b19d:	83 c0 08             	add    $0x8,%eax
 804b1a0:	89 04 24             	mov    %eax,(%esp)
 804b1a3:	e8 90 0b 00 00       	call   804bd38 <_ZNSt15_Deque_iteratorINSt3tr18functionIFvvEEERS3_PS3_EC1Ev>
 804b1a8:	8b 45 08             	mov    0x8(%ebp),%eax
 804b1ab:	83 c0 18             	add    $0x18,%eax
 804b1ae:	89 04 24             	mov    %eax,(%esp)
 804b1b1:	e8 82 0b 00 00       	call   804bd38 <_ZNSt15_Deque_iteratorINSt3tr18functionIFvvEEERS3_PS3_EC1Ev>
 804b1b6:	c9                   	leave  
 804b1b7:	c3                   	ret    

0804b1b8 <_ZNSaINSt3tr18functionIFvvEEEED1Ev>:
 804b1b8:	55                   	push   %ebp
 804b1b9:	89 e5                	mov    %esp,%ebp
 804b1bb:	83 ec 18             	sub    $0x18,%esp
 804b1be:	8b 45 08             	mov    0x8(%ebp),%eax
 804b1c1:	89 04 24             	mov    %eax,(%esp)
 804b1c4:	e8 9b 0b 00 00       	call   804bd64 <_ZN9__gnu_cxx13new_allocatorINSt3tr18functionIFvvEEEED1Ev>
 804b1c9:	c9                   	leave  
 804b1ca:	c3                   	ret    
 804b1cb:	90                   	nop

0804b1cc <_ZNSt11_Deque_baseINSt3tr18functionIFvvEEESaIS3_EE17_M_initialize_mapEj>:
 804b1cc:	55                   	push   %ebp
 804b1cd:	89 e5                	mov    %esp,%ebp
 804b1cf:	53                   	push   %ebx
 804b1d0:	83 ec 44             	sub    $0x44,%esp
 804b1d3:	c7 04 24 10 00 00 00 	movl   $0x10,(%esp)
 804b1da:	e8 be e3 ff ff       	call   804959d <_ZSt16__deque_buf_sizej>
 804b1df:	89 45 d4             	mov    %eax,-0x2c(%ebp)
 804b1e2:	8b 45 0c             	mov    0xc(%ebp),%eax
 804b1e5:	ba 00 00 00 00       	mov    $0x0,%edx
 804b1ea:	f7 75 d4             	divl   -0x2c(%ebp)
 804b1ed:	83 c0 01             	add    $0x1,%eax
 804b1f0:	89 45 ec             	mov    %eax,-0x14(%ebp)
 804b1f3:	8b 45 ec             	mov    -0x14(%ebp),%eax
 804b1f6:	83 c0 02             	add    $0x2,%eax
 804b1f9:	89 45 e8             	mov    %eax,-0x18(%ebp)
 804b1fc:	c7 45 e4 08 00 00 00 	movl   $0x8,-0x1c(%ebp)
 804b203:	8d 45 e8             	lea    -0x18(%ebp),%eax
 804b206:	89 44 24 04          	mov    %eax,0x4(%esp)
 804b20a:	8d 45 e4             	lea    -0x1c(%ebp),%eax
 804b20d:	89 04 24             	mov    %eax,(%esp)
 804b210:	e8 54 0b 00 00       	call   804bd69 <_ZSt3maxIjERKT_S2_S2_>
 804b215:	8b 10                	mov    (%eax),%edx
 804b217:	8b 45 08             	mov    0x8(%ebp),%eax
 804b21a:	89 50 04             	mov    %edx,0x4(%eax)
 804b21d:	8b 45 08             	mov    0x8(%ebp),%eax
 804b220:	8b 40 04             	mov    0x4(%eax),%eax
 804b223:	89 44 24 04          	mov    %eax,0x4(%esp)
 804b227:	8b 45 08             	mov    0x8(%ebp),%eax
 804b22a:	89 04 24             	mov    %eax,(%esp)
 804b22d:	e8 52 0b 00 00       	call   804bd84 <_ZNSt11_Deque_baseINSt3tr18functionIFvvEEESaIS3_EE15_M_allocate_mapEj>
 804b232:	89 c2                	mov    %eax,%edx
 804b234:	8b 45 08             	mov    0x8(%ebp),%eax
 804b237:	89 10                	mov    %edx,(%eax)
 804b239:	8b 45 08             	mov    0x8(%ebp),%eax
 804b23c:	8b 10                	mov    (%eax),%edx
 804b23e:	8b 45 08             	mov    0x8(%ebp),%eax
 804b241:	8b 40 04             	mov    0x4(%eax),%eax
 804b244:	2b 45 ec             	sub    -0x14(%ebp),%eax
 804b247:	d1 e8                	shr    %eax
 804b249:	c1 e0 02             	shl    $0x2,%eax
 804b24c:	01 d0                	add    %edx,%eax
 804b24e:	89 45 f0             	mov    %eax,-0x10(%ebp)
 804b251:	8b 45 ec             	mov    -0x14(%ebp),%eax
 804b254:	c1 e0 02             	shl    $0x2,%eax
 804b257:	03 45 f0             	add    -0x10(%ebp),%eax
 804b25a:	89 45 f4             	mov    %eax,-0xc(%ebp)
 804b25d:	8b 45 f4             	mov    -0xc(%ebp),%eax
 804b260:	89 44 24 08          	mov    %eax,0x8(%esp)
 804b264:	8b 45 f0             	mov    -0x10(%ebp),%eax
 804b267:	89 44 24 04          	mov    %eax,0x4(%esp)
 804b26b:	8b 45 08             	mov    0x8(%ebp),%eax
 804b26e:	89 04 24             	mov    %eax,(%esp)
 804b271:	e8 70 0b 00 00       	call   804bde6 <_ZNSt11_Deque_baseINSt3tr18functionIFvvEEESaIS3_EE15_M_create_nodesEPPS3_S7_>
 804b276:	8b 45 08             	mov    0x8(%ebp),%eax
 804b279:	8d 50 08             	lea    0x8(%eax),%edx
 804b27c:	8b 45 f0             	mov    -0x10(%ebp),%eax
 804b27f:	89 44 24 04          	mov    %eax,0x4(%esp)
 804b283:	89 14 24             	mov    %edx,(%esp)
 804b286:	e8 cd 0b 00 00       	call   804be58 <_ZNSt15_Deque_iteratorINSt3tr18functionIFvvEEERS3_PS3_E11_M_set_nodeEPS5_>
 804b28b:	8b 45 f4             	mov    -0xc(%ebp),%eax
 804b28e:	8d 50 fc             	lea    -0x4(%eax),%edx
 804b291:	8b 45 08             	mov    0x8(%ebp),%eax
 804b294:	83 c0 18             	add    $0x18,%eax
 804b297:	89 54 24 04          	mov    %edx,0x4(%esp)
 804b29b:	89 04 24             	mov    %eax,(%esp)
 804b29e:	e8 b5 0b 00 00       	call   804be58 <_ZNSt15_Deque_iteratorINSt3tr18functionIFvvEEERS3_PS3_E11_M_set_nodeEPS5_>
 804b2a3:	8b 45 08             	mov    0x8(%ebp),%eax
 804b2a6:	8b 50 0c             	mov    0xc(%eax),%edx
 804b2a9:	8b 45 08             	mov    0x8(%ebp),%eax
 804b2ac:	89 50 08             	mov    %edx,0x8(%eax)
 804b2af:	8b 45 08             	mov    0x8(%ebp),%eax
 804b2b2:	8b 58 1c             	mov    0x1c(%eax),%ebx
 804b2b5:	c7 04 24 10 00 00 00 	movl   $0x10,(%esp)
 804b2bc:	e8 dc e2 ff ff       	call   804959d <_ZSt16__deque_buf_sizej>
 804b2c1:	89 45 d4             	mov    %eax,-0x2c(%ebp)
 804b2c4:	8b 45 0c             	mov    0xc(%ebp),%eax
 804b2c7:	ba 00 00 00 00       	mov    $0x0,%edx
 804b2cc:	f7 75 d4             	divl   -0x2c(%ebp)
 804b2cf:	89 d1                	mov    %edx,%ecx
 804b2d1:	89 c8                	mov    %ecx,%eax
 804b2d3:	c1 e0 04             	shl    $0x4,%eax
 804b2d6:	8d 14 03             	lea    (%ebx,%eax,1),%edx
 804b2d9:	8b 45 08             	mov    0x8(%ebp),%eax
 804b2dc:	89 50 18             	mov    %edx,0x18(%eax)
 804b2df:	83 c4 44             	add    $0x44,%esp
 804b2e2:	5b                   	pop    %ebx
 804b2e3:	5d                   	pop    %ebp
 804b2e4:	c3                   	ret    
 804b2e5:	89 c3                	mov    %eax,%ebx
 804b2e7:	e8 c4 dd ff ff       	call   80490b0 <__cxa_end_catch@plt>
 804b2ec:	89 d8                	mov    %ebx,%eax
 804b2ee:	89 04 24             	mov    %eax,(%esp)
 804b2f1:	e8 1a de ff ff       	call   8049110 <_Unwind_Resume@plt>
 804b2f6:	89 04 24             	mov    %eax,(%esp)
 804b2f9:	e8 02 dc ff ff       	call   8048f00 <__cxa_begin_catch@plt>
 804b2fe:	8b 45 08             	mov    0x8(%ebp),%eax
 804b301:	8b 50 04             	mov    0x4(%eax),%edx
 804b304:	8b 45 08             	mov    0x8(%ebp),%eax
 804b307:	8b 00                	mov    (%eax),%eax
 804b309:	89 54 24 08          	mov    %edx,0x8(%esp)
 804b30d:	89 44 24 04          	mov    %eax,0x4(%esp)
 804b311:	8b 45 08             	mov    0x8(%ebp),%eax
 804b314:	89 04 24             	mov    %eax,(%esp)
 804b317:	e8 4e 00 00 00       	call   804b36a <_ZNSt11_Deque_baseINSt3tr18functionIFvvEEESaIS3_EE17_M_deallocate_mapEPPS3_j>
 804b31c:	8b 45 08             	mov    0x8(%ebp),%eax
 804b31f:	c7 00 00 00 00 00    	movl   $0x0,(%eax)
 804b325:	8b 45 08             	mov    0x8(%ebp),%eax
 804b328:	c7 40 04 00 00 00 00 	movl   $0x0,0x4(%eax)
 804b32f:	e8 4c dd ff ff       	call   8049080 <__cxa_rethrow@plt>

0804b334 <_ZNSt11_Deque_baseINSt3tr18functionIFvvEEESaIS3_EE16_M_destroy_nodesEPPS3_S7_>:
 804b334:	55                   	push   %ebp
 804b335:	89 e5                	mov    %esp,%ebp
 804b337:	83 ec 28             	sub    $0x28,%esp
 804b33a:	8b 45 0c             	mov    0xc(%ebp),%eax
 804b33d:	89 45 f4             	mov    %eax,-0xc(%ebp)
 804b340:	eb 18                	jmp    804b35a <_ZNSt11_Deque_baseINSt3tr18functionIFvvEEESaIS3_EE16_M_destroy_nodesEPPS3_S7_+0x26>
 804b342:	8b 45 f4             	mov    -0xc(%ebp),%eax
 804b345:	8b 00                	mov    (%eax),%eax
 804b347:	89 44 24 04          	mov    %eax,0x4(%esp)
 804b34b:	8b 45 08             	mov    0x8(%ebp),%eax
 804b34e:	89 04 24             	mov    %eax,(%esp)
 804b351:	e8 3a 0b 00 00       	call   804be90 <_ZNSt11_Deque_baseINSt3tr18functionIFvvEEESaIS3_EE18_M_deallocate_nodeEPS3_>
 804b356:	83 45 f4 04          	addl   $0x4,-0xc(%ebp)
 804b35a:	8b 45 f4             	mov    -0xc(%ebp),%eax
 804b35d:	3b 45 10             	cmp    0x10(%ebp),%eax
 804b360:	0f 92 c0             	setb   %al
 804b363:	84 c0                	test   %al,%al
 804b365:	75 db                	jne    804b342 <_ZNSt11_Deque_baseINSt3tr18functionIFvvEEESaIS3_EE16_M_destroy_nodesEPPS3_S7_+0xe>
 804b367:	c9                   	leave  
 804b368:	c3                   	ret    
 804b369:	90                   	nop

0804b36a <_ZNSt11_Deque_baseINSt3tr18functionIFvvEEESaIS3_EE17_M_deallocate_mapEPPS3_j>:
 804b36a:	55                   	push   %ebp
 804b36b:	89 e5                	mov    %esp,%ebp
 804b36d:	83 ec 28             	sub    $0x28,%esp
 804b370:	8d 45 f7             	lea    -0x9(%ebp),%eax
 804b373:	8b 55 08             	mov    0x8(%ebp),%edx
 804b376:	89 54 24 04          	mov    %edx,0x4(%esp)
 804b37a:	89 04 24             	mov    %eax,(%esp)
 804b37d:	e8 38 0b 00 00       	call   804beba <_ZNKSt11_Deque_baseINSt3tr18functionIFvvEEESaIS3_EE20_M_get_map_allocatorEv>
 804b382:	83 ec 04             	sub    $0x4,%esp
 804b385:	8b 45 10             	mov    0x10(%ebp),%eax
 804b388:	89 44 24 08          	mov    %eax,0x8(%esp)
 804b38c:	8b 45 0c             	mov    0xc(%ebp),%eax
 804b38f:	89 44 24 04          	mov    %eax,0x4(%esp)
 804b393:	8d 45 f7             	lea    -0x9(%ebp),%eax
 804b396:	89 04 24             	mov    %eax,(%esp)
 804b399:	e8 58 0b 00 00       	call   804bef6 <_ZN9__gnu_cxx13new_allocatorIPNSt3tr18functionIFvvEEEE10deallocateEPS5_j>
 804b39e:	8d 45 f7             	lea    -0x9(%ebp),%eax
 804b3a1:	89 04 24             	mov    %eax,(%esp)
 804b3a4:	e8 39 0b 00 00       	call   804bee2 <_ZNSaIPNSt3tr18functionIFvvEEEED1Ev>
 804b3a9:	c9                   	leave  
 804b3aa:	c3                   	ret    
 804b3ab:	90                   	nop

0804b3ac <_ZNSt5dequeINSt3tr18functionIFvvEEESaIS3_EE19_M_destroy_data_auxESt15_Deque_iteratorIS3_RS3_PS3_ES9_>:
 804b3ac:	55                   	push   %ebp
 804b3ad:	89 e5                	mov    %esp,%ebp
 804b3af:	56                   	push   %esi
 804b3b0:	53                   	push   %ebx
 804b3b1:	83 ec 20             	sub    $0x20,%esp
 804b3b4:	8b 45 0c             	mov    0xc(%ebp),%eax
 804b3b7:	8b 40 0c             	mov    0xc(%eax),%eax
 804b3ba:	83 c0 04             	add    $0x4,%eax
 804b3bd:	89 45 f4             	mov    %eax,-0xc(%ebp)
 804b3c0:	eb 36                	jmp    804b3f8 <_ZNSt5dequeINSt3tr18functionIFvvEEESaIS3_EE19_M_destroy_data_auxESt15_Deque_iteratorIS3_RS3_PS3_ES9_+0x4c>
 804b3c2:	8b 45 08             	mov    0x8(%ebp),%eax
 804b3c5:	89 04 24             	mov    %eax,(%esp)
 804b3c8:	e8 ab f3 ff ff       	call   804a778 <_ZNSt11_Deque_baseINSt3tr18functionIFvvEEESaIS3_EE19_M_get_Tp_allocatorEv>
 804b3cd:	89 c3                	mov    %eax,%ebx
 804b3cf:	8b 45 f4             	mov    -0xc(%ebp),%eax
 804b3d2:	8b 30                	mov    (%eax),%esi
 804b3d4:	e8 30 0b 00 00       	call   804bf09 <_ZNSt5dequeINSt3tr18functionIFvvEEESaIS3_EE14_S_buffer_sizeEv>
 804b3d9:	c1 e0 04             	shl    $0x4,%eax
 804b3dc:	8d 14 06             	lea    (%esi,%eax,1),%edx
 804b3df:	8b 45 f4             	mov    -0xc(%ebp),%eax
 804b3e2:	8b 00                	mov    (%eax),%eax
 804b3e4:	89 5c 24 08          	mov    %ebx,0x8(%esp)
 804b3e8:	89 54 24 04          	mov    %edx,0x4(%esp)
 804b3ec:	89 04 24             	mov    %eax,(%esp)
 804b3ef:	e8 29 0b 00 00       	call   804bf1d <_ZSt8_DestroyIPNSt3tr18functionIFvvEEES3_EvT_S5_RSaIT0_E>
 804b3f4:	83 45 f4 04          	addl   $0x4,-0xc(%ebp)
 804b3f8:	8b 45 10             	mov    0x10(%ebp),%eax
 804b3fb:	8b 40 0c             	mov    0xc(%eax),%eax
 804b3fe:	3b 45 f4             	cmp    -0xc(%ebp),%eax
 804b401:	0f 97 c0             	seta   %al
 804b404:	84 c0                	test   %al,%al
 804b406:	75 ba                	jne    804b3c2 <_ZNSt5dequeINSt3tr18functionIFvvEEESaIS3_EE19_M_destroy_data_auxESt15_Deque_iteratorIS3_RS3_PS3_ES9_+0x16>
 804b408:	8b 45 0c             	mov    0xc(%ebp),%eax
 804b40b:	8b 50 0c             	mov    0xc(%eax),%edx
 804b40e:	8b 45 10             	mov    0x10(%ebp),%eax
 804b411:	8b 40 0c             	mov    0xc(%eax),%eax
 804b414:	39 c2                	cmp    %eax,%edx
 804b416:	74 4e                	je     804b466 <_ZNSt5dequeINSt3tr18functionIFvvEEESaIS3_EE19_M_destroy_data_auxESt15_Deque_iteratorIS3_RS3_PS3_ES9_+0xba>
 804b418:	8b 45 08             	mov    0x8(%ebp),%eax
 804b41b:	89 04 24             	mov    %eax,(%esp)
 804b41e:	e8 55 f3 ff ff       	call   804a778 <_ZNSt11_Deque_baseINSt3tr18functionIFvvEEESaIS3_EE19_M_get_Tp_allocatorEv>
 804b423:	8b 55 0c             	mov    0xc(%ebp),%edx
 804b426:	8b 4a 08             	mov    0x8(%edx),%ecx
 804b429:	8b 55 0c             	mov    0xc(%ebp),%edx
 804b42c:	8b 12                	mov    (%edx),%edx
 804b42e:	89 44 24 08          	mov    %eax,0x8(%esp)
 804b432:	89 4c 24 04          	mov    %ecx,0x4(%esp)
 804b436:	89 14 24             	mov    %edx,(%esp)
 804b439:	e8 df 0a 00 00       	call   804bf1d <_ZSt8_DestroyIPNSt3tr18functionIFvvEEES3_EvT_S5_RSaIT0_E>
 804b43e:	8b 45 08             	mov    0x8(%ebp),%eax
 804b441:	89 04 24             	mov    %eax,(%esp)
 804b444:	e8 2f f3 ff ff       	call   804a778 <_ZNSt11_Deque_baseINSt3tr18functionIFvvEEESaIS3_EE19_M_get_Tp_allocatorEv>
 804b449:	8b 55 10             	mov    0x10(%ebp),%edx
 804b44c:	8b 0a                	mov    (%edx),%ecx
 804b44e:	8b 55 10             	mov    0x10(%ebp),%edx
 804b451:	8b 52 04             	mov    0x4(%edx),%edx
 804b454:	89 44 24 08          	mov    %eax,0x8(%esp)
 804b458:	89 4c 24 04          	mov    %ecx,0x4(%esp)
 804b45c:	89 14 24             	mov    %edx,(%esp)
 804b45f:	e8 b9 0a 00 00       	call   804bf1d <_ZSt8_DestroyIPNSt3tr18functionIFvvEEES3_EvT_S5_RSaIT0_E>
 804b464:	eb 25                	jmp    804b48b <_ZNSt5dequeINSt3tr18functionIFvvEEESaIS3_EE19_M_destroy_data_auxESt15_Deque_iteratorIS3_RS3_PS3_ES9_+0xdf>
 804b466:	8b 45 08             	mov    0x8(%ebp),%eax
 804b469:	89 04 24             	mov    %eax,(%esp)
 804b46c:	e8 07 f3 ff ff       	call   804a778 <_ZNSt11_Deque_baseINSt3tr18functionIFvvEEESaIS3_EE19_M_get_Tp_allocatorEv>
 804b471:	8b 55 10             	mov    0x10(%ebp),%edx
 804b474:	8b 0a                	mov    (%edx),%ecx
 804b476:	8b 55 0c             	mov    0xc(%ebp),%edx
 804b479:	8b 12                	mov    (%edx),%edx
 804b47b:	89 44 24 08          	mov    %eax,0x8(%esp)
 804b47f:	89 4c 24 04          	mov    %ecx,0x4(%esp)
 804b483:	89 14 24             	mov    %edx,(%esp)
 804b486:	e8 92 0a 00 00       	call   804bf1d <_ZSt8_DestroyIPNSt3tr18functionIFvvEEES3_EvT_S5_RSaIT0_E>
 804b48b:	83 c4 20             	add    $0x20,%esp
 804b48e:	5b                   	pop    %ebx
 804b48f:	5e                   	pop    %esi
 804b490:	5d                   	pop    %ebp
 804b491:	c3                   	ret    

0804b492 <_ZNKSt11_Deque_baseINSt3tr18functionIFvvEEESaIS3_EE19_M_get_Tp_allocatorEv>:
 804b492:	55                   	push   %ebp
 804b493:	89 e5                	mov    %esp,%ebp
 804b495:	8b 45 08             	mov    0x8(%ebp),%eax
 804b498:	5d                   	pop    %ebp
 804b499:	c3                   	ret    

0804b49a <_ZNKSt5dequeINSt3tr18functionIFvvEEESaIS3_EE4sizeEv>:
 804b49a:	55                   	push   %ebp
 804b49b:	89 e5                	mov    %esp,%ebp
 804b49d:	83 ec 18             	sub    $0x18,%esp
 804b4a0:	8b 45 08             	mov    0x8(%ebp),%eax
 804b4a3:	8d 50 08             	lea    0x8(%eax),%edx
 804b4a6:	8b 45 08             	mov    0x8(%ebp),%eax
 804b4a9:	83 c0 18             	add    $0x18,%eax
 804b4ac:	89 54 24 04          	mov    %edx,0x4(%esp)
 804b4b0:	89 04 24             	mov    %eax,(%esp)
 804b4b3:	e8 7f 0a 00 00       	call   804bf37 <_ZStmiINSt3tr18functionIFvvEEERS3_PS3_ENSt15_Deque_iteratorIT_T0_T1_E15difference_typeERKSA_SD_>
 804b4b8:	c9                   	leave  
 804b4b9:	c3                   	ret    

0804b4ba <_ZNSt11_Deque_baseINSt3tr18functionIFvvEEESaIS3_EEC1ERKS4_j>:
 804b4ba:	55                   	push   %ebp
 804b4bb:	89 e5                	mov    %esp,%ebp
 804b4bd:	53                   	push   %ebx
 804b4be:	83 ec 14             	sub    $0x14,%esp
 804b4c1:	8b 45 08             	mov    0x8(%ebp),%eax
 804b4c4:	8b 55 0c             	mov    0xc(%ebp),%edx
 804b4c7:	89 54 24 04          	mov    %edx,0x4(%esp)
 804b4cb:	89 04 24             	mov    %eax,(%esp)
 804b4ce:	e8 c7 0a 00 00       	call   804bf9a <_ZNSt11_Deque_baseINSt3tr18functionIFvvEEESaIS3_EE11_Deque_implC1ERKS4_>
 804b4d3:	8b 45 10             	mov    0x10(%ebp),%eax
 804b4d6:	89 44 24 04          	mov    %eax,0x4(%esp)
 804b4da:	8b 45 08             	mov    0x8(%ebp),%eax
 804b4dd:	89 04 24             	mov    %eax,(%esp)
 804b4e0:	e8 e7 fc ff ff       	call   804b1cc <_ZNSt11_Deque_baseINSt3tr18functionIFvvEEESaIS3_EE17_M_initialize_mapEj>
 804b4e5:	eb 17                	jmp    804b4fe <_ZNSt11_Deque_baseINSt3tr18functionIFvvEEESaIS3_EEC1ERKS4_j+0x44>
 804b4e7:	89 c3                	mov    %eax,%ebx
 804b4e9:	8b 45 08             	mov    0x8(%ebp),%eax
 804b4ec:	89 04 24             	mov    %eax,(%esp)
 804b4ef:	e8 70 f1 ff ff       	call   804a664 <_ZNSt11_Deque_baseINSt3tr18functionIFvvEEESaIS3_EE11_Deque_implD1Ev>
 804b4f4:	89 d8                	mov    %ebx,%eax
 804b4f6:	89 04 24             	mov    %eax,(%esp)
 804b4f9:	e8 12 dc ff ff       	call   8049110 <_Unwind_Resume@plt>
 804b4fe:	83 c4 14             	add    $0x14,%esp
 804b501:	5b                   	pop    %ebx
 804b502:	5d                   	pop    %ebp
 804b503:	c3                   	ret    

0804b504 <_ZNKSt5dequeINSt3tr18functionIFvvEEESaIS3_EE5beginEv>:
 804b504:	55                   	push   %ebp
 804b505:	89 e5                	mov    %esp,%ebp
 804b507:	83 ec 18             	sub    $0x18,%esp
 804b50a:	8b 45 0c             	mov    0xc(%ebp),%eax
 804b50d:	83 c0 08             	add    $0x8,%eax
 804b510:	89 44 24 04          	mov    %eax,0x4(%esp)
 804b514:	8b 45 08             	mov    0x8(%ebp),%eax
 804b517:	89 04 24             	mov    %eax,(%esp)
 804b51a:	e8 c5 0a 00 00       	call   804bfe4 <_ZNSt15_Deque_iteratorINSt3tr18functionIFvvEEERKS3_PS4_EC1ERKS_IS3_RS3_PS3_E>
 804b51f:	8b 45 08             	mov    0x8(%ebp),%eax
 804b522:	c9                   	leave  
 804b523:	c2 04 00             	ret    $0x4

0804b526 <_ZNKSt5dequeINSt3tr18functionIFvvEEESaIS3_EE3endEv>:
 804b526:	55                   	push   %ebp
 804b527:	89 e5                	mov    %esp,%ebp
 804b529:	83 ec 18             	sub    $0x18,%esp
 804b52c:	8b 45 0c             	mov    0xc(%ebp),%eax
 804b52f:	83 c0 18             	add    $0x18,%eax
 804b532:	89 44 24 04          	mov    %eax,0x4(%esp)
 804b536:	8b 45 08             	mov    0x8(%ebp),%eax
 804b539:	89 04 24             	mov    %eax,(%esp)
 804b53c:	e8 a3 0a 00 00       	call   804bfe4 <_ZNSt15_Deque_iteratorINSt3tr18functionIFvvEEERKS3_PS4_EC1ERKS_IS3_RS3_PS3_E>
 804b541:	8b 45 08             	mov    0x8(%ebp),%eax
 804b544:	c9                   	leave  
 804b545:	c2 04 00             	ret    $0x4

0804b548 <_ZSt22__uninitialized_copy_aISt15_Deque_iteratorINSt3tr18functionIFvvEEERKS4_PS5_ES0_IS4_RS4_PS4_ES4_ET0_T_SD_SC_RSaIT1_E>:
 804b548:	55                   	push   %ebp
 804b549:	89 e5                	mov    %esp,%ebp
 804b54b:	83 ec 48             	sub    $0x48,%esp
 804b54e:	8b 45 2c             	mov    0x2c(%ebp),%eax
 804b551:	89 44 24 04          	mov    %eax,0x4(%esp)
 804b555:	8d 45 e8             	lea    -0x18(%ebp),%eax
 804b558:	89 04 24             	mov    %eax,(%esp)
 804b55b:	e8 20 f2 ff ff       	call   804a780 <_ZNSt15_Deque_iteratorINSt3tr18functionIFvvEEERS3_PS3_EC1ERKS6_>
 804b560:	8b 45 08             	mov    0x8(%ebp),%eax
 804b563:	8d 55 e8             	lea    -0x18(%ebp),%edx
 804b566:	89 54 24 24          	mov    %edx,0x24(%esp)
 804b56a:	8b 55 1c             	mov    0x1c(%ebp),%edx
 804b56d:	89 54 24 14          	mov    %edx,0x14(%esp)
 804b571:	8b 55 20             	mov    0x20(%ebp),%edx
 804b574:	89 54 24 18          	mov    %edx,0x18(%esp)
 804b578:	8b 55 24             	mov    0x24(%ebp),%edx
 804b57b:	89 54 24 1c          	mov    %edx,0x1c(%esp)
 804b57f:	8b 55 28             	mov    0x28(%ebp),%edx
 804b582:	89 54 24 20          	mov    %edx,0x20(%esp)
 804b586:	8b 55 0c             	mov    0xc(%ebp),%edx
 804b589:	89 54 24 04          	mov    %edx,0x4(%esp)
 804b58d:	8b 55 10             	mov    0x10(%ebp),%edx
 804b590:	89 54 24 08          	mov    %edx,0x8(%esp)
 804b594:	8b 55 14             	mov    0x14(%ebp),%edx
 804b597:	89 54 24 0c          	mov    %edx,0xc(%esp)
 804b59b:	8b 55 18             	mov    0x18(%ebp),%edx
 804b59e:	89 54 24 10          	mov    %edx,0x10(%esp)
 804b5a2:	89 04 24             	mov    %eax,(%esp)
 804b5a5:	e8 6d 0a 00 00       	call   804c017 <_ZSt18uninitialized_copyISt15_Deque_iteratorINSt3tr18functionIFvvEEERKS4_PS5_ES0_IS4_RS4_PS4_EET0_T_SD_SC_>
 804b5aa:	83 ec 04             	sub    $0x4,%esp
 804b5ad:	8b 45 08             	mov    0x8(%ebp),%eax
 804b5b0:	c9                   	leave  
 804b5b1:	c2 04 00             	ret    $0x4

0804b5b4 <_ZSteqINSt3tr18functionIFvvEEERS3_PS3_EbRKSt15_Deque_iteratorIT_T0_T1_ESC_>:
 804b5b4:	55                   	push   %ebp
 804b5b5:	89 e5                	mov    %esp,%ebp
 804b5b7:	8b 45 08             	mov    0x8(%ebp),%eax
 804b5ba:	8b 10                	mov    (%eax),%edx
 804b5bc:	8b 45 0c             	mov    0xc(%ebp),%eax
 804b5bf:	8b 00                	mov    (%eax),%eax
 804b5c1:	39 c2                	cmp    %eax,%edx
 804b5c3:	0f 94 c0             	sete   %al
 804b5c6:	5d                   	pop    %ebp
 804b5c7:	c3                   	ret    

0804b5c8 <_ZNKSt15_Deque_iteratorINSt3tr18functionIFvvEEERS3_PS3_EdeEv>:
 804b5c8:	55                   	push   %ebp
 804b5c9:	89 e5                	mov    %esp,%ebp
 804b5cb:	8b 45 08             	mov    0x8(%ebp),%eax
 804b5ce:	8b 00                	mov    (%eax),%eax
 804b5d0:	5d                   	pop    %ebp
 804b5d1:	c3                   	ret    

0804b5d2 <_ZN9__gnu_cxx13new_allocatorINSt3tr18functionIFvvEEEE7destroyEPS4_>:
 804b5d2:	55                   	push   %ebp
 804b5d3:	89 e5                	mov    %esp,%ebp
 804b5d5:	83 ec 18             	sub    $0x18,%esp
 804b5d8:	8b 45 0c             	mov    0xc(%ebp),%eax
 804b5db:	89 04 24             	mov    %eax,(%esp)
 804b5de:	e8 af e1 ff ff       	call   8049792 <_ZNSt3tr18functionIFvvEED1Ev>
 804b5e3:	c9                   	leave  
 804b5e4:	c3                   	ret    
 804b5e5:	90                   	nop

0804b5e6 <_ZNSt5dequeINSt3tr18functionIFvvEEESaIS3_EE16_M_pop_front_auxEv>:
 804b5e6:	55                   	push   %ebp
 804b5e7:	89 e5                	mov    %esp,%ebp
 804b5e9:	83 ec 18             	sub    $0x18,%esp
 804b5ec:	8b 45 08             	mov    0x8(%ebp),%eax
 804b5ef:	8b 50 08             	mov    0x8(%eax),%edx
 804b5f2:	8b 45 08             	mov    0x8(%ebp),%eax
 804b5f5:	89 54 24 04          	mov    %edx,0x4(%esp)
 804b5f9:	89 04 24             	mov    %eax,(%esp)
 804b5fc:	e8 d1 ff ff ff       	call   804b5d2 <_ZN9__gnu_cxx13new_allocatorINSt3tr18functionIFvvEEEE7destroyEPS4_>
 804b601:	8b 45 08             	mov    0x8(%ebp),%eax
 804b604:	8b 50 0c             	mov    0xc(%eax),%edx
 804b607:	8b 45 08             	mov    0x8(%ebp),%eax
 804b60a:	89 54 24 04          	mov    %edx,0x4(%esp)
 804b60e:	89 04 24             	mov    %eax,(%esp)
 804b611:	e8 7a 08 00 00       	call   804be90 <_ZNSt11_Deque_baseINSt3tr18functionIFvvEEESaIS3_EE18_M_deallocate_nodeEPS3_>
 804b616:	8b 45 08             	mov    0x8(%ebp),%eax
 804b619:	8b 40 14             	mov    0x14(%eax),%eax
 804b61c:	8d 50 04             	lea    0x4(%eax),%edx
 804b61f:	8b 45 08             	mov    0x8(%ebp),%eax
 804b622:	83 c0 08             	add    $0x8,%eax
 804b625:	89 54 24 04          	mov    %edx,0x4(%esp)
 804b629:	89 04 24             	mov    %eax,(%esp)
 804b62c:	e8 27 08 00 00       	call   804be58 <_ZNSt15_Deque_iteratorINSt3tr18functionIFvvEEERS3_PS3_E11_M_set_nodeEPS5_>
 804b631:	8b 45 08             	mov    0x8(%ebp),%eax
 804b634:	8b 50 0c             	mov    0xc(%eax),%edx
 804b637:	8b 45 08             	mov    0x8(%ebp),%eax
 804b63a:	89 50 08             	mov    %edx,0x8(%eax)
 804b63d:	c9                   	leave  
 804b63e:	c3                   	ret    
 804b63f:	90                   	nop

0804b640 <_ZN9__gnu_cxx13new_allocatorINSt3tr18functionIFvvEEEE9constructEPS4_RKS4_>:
 804b640:	55                   	push   %ebp
 804b641:	89 e5                	mov    %esp,%ebp
 804b643:	57                   	push   %edi
 804b644:	56                   	push   %esi
 804b645:	53                   	push   %ebx
 804b646:	83 ec 1c             	sub    $0x1c,%esp
 804b649:	8b 75 0c             	mov    0xc(%ebp),%esi
 804b64c:	89 74 24 04          	mov    %esi,0x4(%esp)
 804b650:	c7 04 24 10 00 00 00 	movl   $0x10,(%esp)
 804b657:	e8 46 dd ff ff       	call   80493a2 <_ZnwjPv>
 804b65c:	89 c3                	mov    %eax,%ebx
 804b65e:	85 db                	test   %ebx,%ebx
 804b660:	74 29                	je     804b68b <_ZN9__gnu_cxx13new_allocatorINSt3tr18functionIFvvEEEE9constructEPS4_RKS4_+0x4b>
 804b662:	8b 45 10             	mov    0x10(%ebp),%eax
 804b665:	89 44 24 04          	mov    %eax,0x4(%esp)
 804b669:	89 1c 24             	mov    %ebx,(%esp)
 804b66c:	e8 fb e9 ff ff       	call   804a06c <_ZNSt3tr18functionIFvvEEC1ERKS2_>
 804b671:	eb 18                	jmp    804b68b <_ZN9__gnu_cxx13new_allocatorINSt3tr18functionIFvvEEEE9constructEPS4_RKS4_+0x4b>
 804b673:	89 c7                	mov    %eax,%edi
 804b675:	89 74 24 04          	mov    %esi,0x4(%esp)
 804b679:	89 1c 24             	mov    %ebx,(%esp)
 804b67c:	e8 29 dd ff ff       	call   80493aa <_ZdlPvS_>
 804b681:	89 f8                	mov    %edi,%eax
 804b683:	89 04 24             	mov    %eax,(%esp)
 804b686:	e8 85 da ff ff       	call   8049110 <_Unwind_Resume@plt>
 804b68b:	83 c4 1c             	add    $0x1c,%esp
 804b68e:	5b                   	pop    %ebx
 804b68f:	5e                   	pop    %esi
 804b690:	5f                   	pop    %edi
 804b691:	5d                   	pop    %ebp
 804b692:	c3                   	ret    
 804b693:	90                   	nop

0804b694 <_ZNSt5dequeINSt3tr18functionIFvvEEESaIS3_EE16_M_push_back_auxERKS3_>:
 804b694:	55                   	push   %ebp
 804b695:	89 e5                	mov    %esp,%ebp
 804b697:	53                   	push   %ebx
 804b698:	83 ec 14             	sub    $0x14,%esp
 804b69b:	c7 44 24 04 01 00 00 	movl   $0x1,0x4(%esp)
 804b6a2:	00 
 804b6a3:	8b 45 08             	mov    0x8(%ebp),%eax
 804b6a6:	89 04 24             	mov    %eax,(%esp)
 804b6a9:	e8 d6 09 00 00       	call   804c084 <_ZNSt5dequeINSt3tr18functionIFvvEEESaIS3_EE22_M_reserve_map_at_backEj>
 804b6ae:	8b 45 08             	mov    0x8(%ebp),%eax
 804b6b1:	8b 40 24             	mov    0x24(%eax),%eax
 804b6b4:	8d 58 04             	lea    0x4(%eax),%ebx
 804b6b7:	8b 45 08             	mov    0x8(%ebp),%eax
 804b6ba:	89 04 24             	mov    %eax,(%esp)
 804b6bd:	e8 18 0a 00 00       	call   804c0da <_ZNSt11_Deque_baseINSt3tr18functionIFvvEEESaIS3_EE16_M_allocate_nodeEv>
 804b6c2:	89 03                	mov    %eax,(%ebx)
 804b6c4:	8b 45 08             	mov    0x8(%ebp),%eax
 804b6c7:	8b 50 18             	mov    0x18(%eax),%edx
 804b6ca:	8b 45 08             	mov    0x8(%ebp),%eax
 804b6cd:	8b 4d 0c             	mov    0xc(%ebp),%ecx
 804b6d0:	89 4c 24 08          	mov    %ecx,0x8(%esp)
 804b6d4:	89 54 24 04          	mov    %edx,0x4(%esp)
 804b6d8:	89 04 24             	mov    %eax,(%esp)
 804b6db:	e8 60 ff ff ff       	call   804b640 <_ZN9__gnu_cxx13new_allocatorINSt3tr18functionIFvvEEEE9constructEPS4_RKS4_>
 804b6e0:	8b 45 08             	mov    0x8(%ebp),%eax
 804b6e3:	8b 40 24             	mov    0x24(%eax),%eax
 804b6e6:	8d 50 04             	lea    0x4(%eax),%edx
 804b6e9:	8b 45 08             	mov    0x8(%ebp),%eax
 804b6ec:	83 c0 18             	add    $0x18,%eax
 804b6ef:	89 54 24 04          	mov    %edx,0x4(%esp)
 804b6f3:	89 04 24             	mov    %eax,(%esp)
 804b6f6:	e8 5d 07 00 00       	call   804be58 <_ZNSt15_Deque_iteratorINSt3tr18functionIFvvEEERS3_PS3_E11_M_set_nodeEPS5_>
 804b6fb:	8b 45 08             	mov    0x8(%ebp),%eax
 804b6fe:	8b 50 1c             	mov    0x1c(%eax),%edx
 804b701:	8b 45 08             	mov    0x8(%ebp),%eax
 804b704:	89 50 18             	mov    %edx,0x18(%eax)
 804b707:	83 c4 14             	add    $0x14,%esp
 804b70a:	5b                   	pop    %ebx
 804b70b:	5d                   	pop    %ebp
 804b70c:	c3                   	ret    
 804b70d:	89 c3                	mov    %eax,%ebx
 804b70f:	e8 9c d9 ff ff       	call   80490b0 <__cxa_end_catch@plt>
 804b714:	89 d8                	mov    %ebx,%eax
 804b716:	89 04 24             	mov    %eax,(%esp)
 804b719:	e8 f2 d9 ff ff       	call   8049110 <_Unwind_Resume@plt>
 804b71e:	89 04 24             	mov    %eax,(%esp)
 804b721:	e8 da d7 ff ff       	call   8048f00 <__cxa_begin_catch@plt>
 804b726:	8b 45 08             	mov    0x8(%ebp),%eax
 804b729:	8b 40 24             	mov    0x24(%eax),%eax
 804b72c:	83 c0 04             	add    $0x4,%eax
 804b72f:	8b 10                	mov    (%eax),%edx
 804b731:	8b 45 08             	mov    0x8(%ebp),%eax
 804b734:	89 54 24 04          	mov    %edx,0x4(%esp)
 804b738:	89 04 24             	mov    %eax,(%esp)
 804b73b:	e8 50 07 00 00       	call   804be90 <_ZNSt11_Deque_baseINSt3tr18functionIFvvEEESaIS3_EE18_M_deallocate_nodeEPS3_>
 804b740:	e8 3b d9 ff ff       	call   8049080 <__cxa_rethrow@plt>
 804b745:	90                   	nop

0804b746 <_ZNSt15binary_functionIP9MirrorImpivEC1Ev>:
 804b746:	55                   	push   %ebp
 804b747:	89 e5                	mov    %esp,%ebp
 804b749:	5d                   	pop    %ebp
 804b74a:	c3                   	ret    
 804b74b:	90                   	nop

0804b74c <_ZNSt3tr131_Maybe_unary_or_binary_functionIvIP9MirrorImpiEEC1Ev>:
 804b74c:	55                   	push   %ebp
 804b74d:	89 e5                	mov    %esp,%ebp
 804b74f:	83 ec 18             	sub    $0x18,%esp
 804b752:	8b 45 08             	mov    0x8(%ebp),%eax
 804b755:	89 04 24             	mov    %eax,(%esp)
 804b758:	e8 e9 ff ff ff       	call   804b746 <_ZNSt15binary_functionIP9MirrorImpivEC1Ev>
 804b75d:	c9                   	leave  
 804b75e:	c3                   	ret    
 804b75f:	90                   	nop

0804b760 <_ZNSt3tr17_Mem_fnIM9MirrorImpFviEEC1ES3_>:
 804b760:	55                   	push   %ebp
 804b761:	89 e5                	mov    %esp,%ebp
 804b763:	83 ec 18             	sub    $0x18,%esp
 804b766:	8b 45 08             	mov    0x8(%ebp),%eax
 804b769:	89 04 24             	mov    %eax,(%esp)
 804b76c:	e8 db ff ff ff       	call   804b74c <_ZNSt3tr131_Maybe_unary_or_binary_functionIvIP9MirrorImpiEEC1Ev>
 804b771:	8b 4d 08             	mov    0x8(%ebp),%ecx
 804b774:	8b 45 0c             	mov    0xc(%ebp),%eax
 804b777:	8b 55 10             	mov    0x10(%ebp),%edx
 804b77a:	89 01                	mov    %eax,(%ecx)
 804b77c:	89 51 04             	mov    %edx,0x4(%ecx)
 804b77f:	c9                   	leave  
 804b780:	c3                   	ret    
 804b781:	90                   	nop

0804b782 <_ZNSt3tr15tupleII9MirrorImpiEEC1ERKS1_RKi>:
 804b782:	55                   	push   %ebp
 804b783:	89 e5                	mov    %esp,%ebp
 804b785:	83 ec 18             	sub    $0x18,%esp
 804b788:	8b 45 08             	mov    0x8(%ebp),%eax
 804b78b:	8b 55 10             	mov    0x10(%ebp),%edx
 804b78e:	89 54 24 08          	mov    %edx,0x8(%esp)
 804b792:	8b 55 0c             	mov    0xc(%ebp),%edx
 804b795:	89 54 24 04          	mov    %edx,0x4(%esp)
 804b799:	89 04 24             	mov    %eax,(%esp)
 804b79c:	e8 65 09 00 00       	call   804c106 <_ZNSt3tr111_Tuple_implILi0EI9MirrorImpiEEC1ERKS1_RKi>
 804b7a1:	c9                   	leave  
 804b7a2:	c3                   	ret    
 804b7a3:	90                   	nop

0804b7a4 <_ZNKSt3tr111_Tuple_implILi0EI9MirrorImpiEE7_M_tailEv>:
 804b7a4:	55                   	push   %ebp
 804b7a5:	89 e5                	mov    %esp,%ebp
 804b7a7:	8b 45 08             	mov    0x8(%ebp),%eax
 804b7aa:	5d                   	pop    %ebp
 804b7ab:	c3                   	ret    

0804b7ac <_ZNSt3tr111_Tuple_implILi1EIiEEC1ERKS1_>:
 804b7ac:	55                   	push   %ebp
 804b7ad:	89 e5                	mov    %esp,%ebp
 804b7af:	83 ec 18             	sub    $0x18,%esp
 804b7b2:	8b 45 0c             	mov    0xc(%ebp),%eax
 804b7b5:	89 04 24             	mov    %eax,(%esp)
 804b7b8:	e8 63 09 00 00       	call   804c120 <_ZNKSt3tr111_Tuple_implILi1EIiEE7_M_tailEv>
 804b7bd:	8b 45 0c             	mov    0xc(%ebp),%eax
 804b7c0:	8b 10                	mov    (%eax),%edx
 804b7c2:	8b 45 08             	mov    0x8(%ebp),%eax
 804b7c5:	89 10                	mov    %edx,(%eax)
 804b7c7:	c9                   	leave  
 804b7c8:	c3                   	ret    

0804b7c9 <_ZNSt3tr114_Function_base13_Base_managerINS_5_BindIFNS_7_Mem_fnIM9MirrorImpFviEEES4_iEEEE14_M_get_pointerERKNS_9_Any_dataE>:
 804b7c9:	55                   	push   %ebp
 804b7ca:	89 e5                	mov    %esp,%ebp
 804b7cc:	83 ec 28             	sub    $0x28,%esp
 804b7cf:	8b 45 08             	mov    0x8(%ebp),%eax
 804b7d2:	89 04 24             	mov    %eax,(%esp)
 804b7d5:	e8 4e 09 00 00       	call   804c128 <_ZNKSt3tr19_Any_data9_M_accessIPNS_5_BindIFNS_7_Mem_fnIM9MirrorImpFviEEES4_iEEEEERKT_v>
 804b7da:	8b 00                	mov    (%eax),%eax
 804b7dc:	89 45 f4             	mov    %eax,-0xc(%ebp)
 804b7df:	8b 45 f4             	mov    -0xc(%ebp),%eax
 804b7e2:	c9                   	leave  
 804b7e3:	c3                   	ret    

0804b7e4 <_ZNSt3tr15_BindIFNS_7_Mem_fnIM9MirrorImpFviEEES2_iEEclIIEEENS_9result_ofIFS5_NS9_IFNS_3_MuIS2_Lb0ELb0EEES2_NS_5tupleIIDpT_EEEEE4typeENS9_IFNSA_IiLb0ELb0EEEiSF_EE4typeEEE4typeEDpRSD_>:
 804b7e4:	55                   	push   %ebp
 804b7e5:	89 e5                	mov    %esp,%ebp
 804b7e7:	53                   	push   %ebx
 804b7e8:	83 ec 34             	sub    $0x34,%esp
 804b7eb:	8d 45 e7             	lea    -0x19(%ebp),%eax
 804b7ee:	89 04 24             	mov    %eax,(%esp)
 804b7f1:	e8 45 09 00 00       	call   804c13b <_ZNSt3tr13tieIIEEENS_5tupleIIDpRT_EEES4_>
 804b7f6:	83 ec 04             	sub    $0x4,%esp
 804b7f9:	88 5c 24 08          	mov    %bl,0x8(%esp)
 804b7fd:	8d 45 f7             	lea    -0x9(%ebp),%eax
 804b800:	89 44 24 04          	mov    %eax,0x4(%esp)
 804b804:	8b 45 08             	mov    0x8(%ebp),%eax
 804b807:	89 04 24             	mov    %eax,(%esp)
 804b80a:	e8 37 09 00 00       	call   804c146 <_ZNSt3tr15_BindIFNS_7_Mem_fnIM9MirrorImpFviEEES2_iEE6__callIIEILi0ELi1EEEENS_9result_ofIFS5_NS9_IFNS_3_MuIS2_Lb0ELb0EEES2_NS_5tupleIIDpT_EEEEE4typeENS9_IFNSA_IiLb0ELb0EEEiSF_EE4typeEEE4typeERKSF_NS_12_Index_tupleIIXspT0_EEEE>
 804b80f:	8b 5d fc             	mov    -0x4(%ebp),%ebx
 804b812:	c9                   	leave  
 804b813:	c3                   	ret    

0804b814 <_ZNSt3tr19_Any_data9_M_accessIPKSt9type_infoEERT_v>:
 804b814:	55                   	push   %ebp
 804b815:	89 e5                	mov    %esp,%ebp
 804b817:	83 ec 18             	sub    $0x18,%esp
 804b81a:	8b 45 08             	mov    0x8(%ebp),%eax
 804b81d:	89 04 24             	mov    %eax,(%esp)
 804b820:	e8 9b dd ff ff       	call   80495c0 <_ZNSt3tr19_Any_data9_M_accessEv>
 804b825:	c9                   	leave  
 804b826:	c3                   	ret    
 804b827:	90                   	nop

0804b828 <_ZNSt3tr19_Any_data9_M_accessIPNS_5_BindIFNS_7_Mem_fnIM9MirrorImpFviEEES4_iEEEEERT_v>:
 804b828:	55                   	push   %ebp
 804b829:	89 e5                	mov    %esp,%ebp
 804b82b:	83 ec 18             	sub    $0x18,%esp
 804b82e:	8b 45 08             	mov    0x8(%ebp),%eax
 804b831:	89 04 24             	mov    %eax,(%esp)
 804b834:	e8 87 dd ff ff       	call   80495c0 <_ZNSt3tr19_Any_data9_M_accessEv>
 804b839:	c9                   	leave  
 804b83a:	c3                   	ret    

0804b83b <_ZNSt3tr114_Function_base13_Base_managerINS_5_BindIFNS_7_Mem_fnIM9MirrorImpFviEEES4_iEEEE8_M_cloneERNS_9_Any_dataERKSB_NS_17integral_constantIbLb0EEE>:
 804b83b:	55                   	push   %ebp
 804b83c:	89 e5                	mov    %esp,%ebp
 804b83e:	56                   	push   %esi
 804b83f:	53                   	push   %ebx
 804b840:	83 ec 10             	sub    $0x10,%esp
 804b843:	8b 45 0c             	mov    0xc(%ebp),%eax
 804b846:	89 04 24             	mov    %eax,(%esp)
 804b849:	e8 da 08 00 00       	call   804c128 <_ZNKSt3tr19_Any_data9_M_accessIPNS_5_BindIFNS_7_Mem_fnIM9MirrorImpFviEEES4_iEEEEERKT_v>
 804b84e:	8b 30                	mov    (%eax),%esi
 804b850:	c7 04 24 10 00 00 00 	movl   $0x10,(%esp)
 804b857:	e8 54 d6 ff ff       	call   8048eb0 <_Znwj@plt>
 804b85c:	89 c3                	mov    %eax,%ebx
 804b85e:	89 74 24 04          	mov    %esi,0x4(%esp)
 804b862:	89 1c 24             	mov    %ebx,(%esp)
 804b865:	e8 70 e3 ff ff       	call   8049bda <_ZNSt3tr15_BindIFNS_7_Mem_fnIM9MirrorImpFviEEES2_iEEC1ERKS7_>
 804b86a:	8b 45 08             	mov    0x8(%ebp),%eax
 804b86d:	89 04 24             	mov    %eax,(%esp)
 804b870:	e8 b3 ff ff ff       	call   804b828 <_ZNSt3tr19_Any_data9_M_accessIPNS_5_BindIFNS_7_Mem_fnIM9MirrorImpFviEEES4_iEEEEERT_v>
 804b875:	89 18                	mov    %ebx,(%eax)
 804b877:	83 c4 10             	add    $0x10,%esp
 804b87a:	5b                   	pop    %ebx
 804b87b:	5e                   	pop    %esi
 804b87c:	5d                   	pop    %ebp
 804b87d:	c3                   	ret    
 804b87e:	89 c6                	mov    %eax,%esi
 804b880:	89 1c 24             	mov    %ebx,(%esp)
 804b883:	e8 28 d7 ff ff       	call   8048fb0 <_ZdlPv@plt>
 804b888:	89 f0                	mov    %esi,%eax
 804b88a:	89 04 24             	mov    %eax,(%esp)
 804b88d:	e8 7e d8 ff ff       	call   8049110 <_Unwind_Resume@plt>

0804b892 <_ZNSt3tr114_Function_base13_Base_managerINS_5_BindIFNS_7_Mem_fnIM9MirrorImpFviEEES4_iEEEE10_M_destroyERNS_9_Any_dataENS_17integral_constantIbLb0EEE>:
 804b892:	55                   	push   %ebp
 804b893:	89 e5                	mov    %esp,%ebp
 804b895:	53                   	push   %ebx
 804b896:	83 ec 14             	sub    $0x14,%esp
 804b899:	8b 45 08             	mov    0x8(%ebp),%eax
 804b89c:	89 04 24             	mov    %eax,(%esp)
 804b89f:	e8 84 ff ff ff       	call   804b828 <_ZNSt3tr19_Any_data9_M_accessIPNS_5_BindIFNS_7_Mem_fnIM9MirrorImpFviEEES4_iEEEEERT_v>
 804b8a4:	8b 18                	mov    (%eax),%ebx
 804b8a6:	85 db                	test   %ebx,%ebx
 804b8a8:	74 10                	je     804b8ba <_ZNSt3tr114_Function_base13_Base_managerINS_5_BindIFNS_7_Mem_fnIM9MirrorImpFviEEES4_iEEEE10_M_destroyERNS_9_Any_dataENS_17integral_constantIbLb0EEE+0x28>
 804b8aa:	89 1c 24             	mov    %ebx,(%esp)
 804b8ad:	e8 12 e3 ff ff       	call   8049bc4 <_ZNSt3tr15_BindIFNS_7_Mem_fnIM9MirrorImpFviEEES2_iEED1Ev>
 804b8b2:	89 1c 24             	mov    %ebx,(%esp)
 804b8b5:	e8 f6 d6 ff ff       	call   8048fb0 <_ZdlPv@plt>
 804b8ba:	83 c4 14             	add    $0x14,%esp
 804b8bd:	5b                   	pop    %ebx
 804b8be:	5d                   	pop    %ebp
 804b8bf:	c3                   	ret    

0804b8c0 <_ZNSt3tr114_Function_base13_Base_managerINS_5_BindIFNS_7_Mem_fnIM9MirrorImpFviEEES4_iEEEE15_M_init_functorERNS_9_Any_dataERKS9_NS_17integral_constantIbLb0EEE>:
 804b8c0:	55                   	push   %ebp
 804b8c1:	89 e5                	mov    %esp,%ebp
 804b8c3:	56                   	push   %esi
 804b8c4:	53                   	push   %ebx
 804b8c5:	83 ec 10             	sub    $0x10,%esp
 804b8c8:	c7 04 24 10 00 00 00 	movl   $0x10,(%esp)
 804b8cf:	e8 dc d5 ff ff       	call   8048eb0 <_Znwj@plt>
 804b8d4:	89 c3                	mov    %eax,%ebx
 804b8d6:	8b 45 0c             	mov    0xc(%ebp),%eax
 804b8d9:	89 44 24 04          	mov    %eax,0x4(%esp)
 804b8dd:	89 1c 24             	mov    %ebx,(%esp)
 804b8e0:	e8 f5 e2 ff ff       	call   8049bda <_ZNSt3tr15_BindIFNS_7_Mem_fnIM9MirrorImpFviEEES2_iEEC1ERKS7_>
 804b8e5:	8b 45 08             	mov    0x8(%ebp),%eax
 804b8e8:	89 04 24             	mov    %eax,(%esp)
 804b8eb:	e8 38 ff ff ff       	call   804b828 <_ZNSt3tr19_Any_data9_M_accessIPNS_5_BindIFNS_7_Mem_fnIM9MirrorImpFviEEES4_iEEEEERT_v>
 804b8f0:	89 18                	mov    %ebx,(%eax)
 804b8f2:	83 c4 10             	add    $0x10,%esp
 804b8f5:	5b                   	pop    %ebx
 804b8f6:	5e                   	pop    %esi
 804b8f7:	5d                   	pop    %ebp
 804b8f8:	c3                   	ret    
 804b8f9:	89 c6                	mov    %eax,%esi
 804b8fb:	89 1c 24             	mov    %ebx,(%esp)
 804b8fe:	e8 ad d6 ff ff       	call   8048fb0 <_ZdlPv@plt>
 804b903:	89 f0                	mov    %esi,%eax
 804b905:	89 04 24             	mov    %eax,(%esp)
 804b908:	e8 03 d8 ff ff       	call   8049110 <_Unwind_Resume@plt>
 804b90d:	90                   	nop

0804b90e <_ZNSt12_Vector_baseIiSaIiEE12_Vector_implC1ERKS0_>:
 804b90e:	55                   	push   %ebp
 804b90f:	89 e5                	mov    %esp,%ebp
 804b911:	83 ec 18             	sub    $0x18,%esp
 804b914:	8b 45 0c             	mov    0xc(%ebp),%eax
 804b917:	89 44 24 04          	mov    %eax,0x4(%esp)
 804b91b:	8b 45 08             	mov    0x8(%ebp),%eax
 804b91e:	89 04 24             	mov    %eax,(%esp)
 804b921:	e8 8a 08 00 00       	call   804c1b0 <_ZNSaIiEC1ERKS_>
 804b926:	8b 45 08             	mov    0x8(%ebp),%eax
 804b929:	c7 00 00 00 00 00    	movl   $0x0,(%eax)
 804b92f:	8b 45 08             	mov    0x8(%ebp),%eax
 804b932:	c7 40 04 00 00 00 00 	movl   $0x0,0x4(%eax)
 804b939:	8b 45 08             	mov    0x8(%ebp),%eax
 804b93c:	c7 40 08 00 00 00 00 	movl   $0x0,0x8(%eax)
 804b943:	c9                   	leave  
 804b944:	c3                   	ret    
 804b945:	90                   	nop

0804b946 <_ZNSaIiED1Ev>:
 804b946:	55                   	push   %ebp
 804b947:	89 e5                	mov    %esp,%ebp
 804b949:	83 ec 18             	sub    $0x18,%esp
 804b94c:	8b 45 08             	mov    0x8(%ebp),%eax
 804b94f:	89 04 24             	mov    %eax,(%esp)
 804b952:	e8 73 08 00 00       	call   804c1ca <_ZN9__gnu_cxx13new_allocatorIiED1Ev>
 804b957:	c9                   	leave  
 804b958:	c3                   	ret    
 804b959:	90                   	nop

0804b95a <_ZNSt12_Vector_baseIiSaIiEE11_M_allocateEj>:
 804b95a:	55                   	push   %ebp
 804b95b:	89 e5                	mov    %esp,%ebp
 804b95d:	83 ec 18             	sub    $0x18,%esp
 804b960:	83 7d 0c 00          	cmpl   $0x0,0xc(%ebp)
 804b964:	74 1c                	je     804b982 <_ZNSt12_Vector_baseIiSaIiEE11_M_allocateEj+0x28>
 804b966:	8b 45 08             	mov    0x8(%ebp),%eax
 804b969:	c7 44 24 08 00 00 00 	movl   $0x0,0x8(%esp)
 804b970:	00 
 804b971:	8b 55 0c             	mov    0xc(%ebp),%edx
 804b974:	89 54 24 04          	mov    %edx,0x4(%esp)
 804b978:	89 04 24             	mov    %eax,(%esp)
 804b97b:	e8 50 08 00 00       	call   804c1d0 <_ZN9__gnu_cxx13new_allocatorIiE8allocateEjPKv>
 804b980:	eb 05                	jmp    804b987 <_ZNSt12_Vector_baseIiSaIiEE11_M_allocateEj+0x2d>
 804b982:	b8 00 00 00 00       	mov    $0x0,%eax
 804b987:	c9                   	leave  
 804b988:	c3                   	ret    
 804b989:	90                   	nop

0804b98a <_ZNSt12_Vector_baseIiSaIiEE13_M_deallocateEPij>:
 804b98a:	55                   	push   %ebp
 804b98b:	89 e5                	mov    %esp,%ebp
 804b98d:	83 ec 18             	sub    $0x18,%esp
 804b990:	83 7d 0c 00          	cmpl   $0x0,0xc(%ebp)
 804b994:	74 19                	je     804b9af <_ZNSt12_Vector_baseIiSaIiEE13_M_deallocateEPij+0x25>
 804b996:	8b 45 08             	mov    0x8(%ebp),%eax
 804b999:	8b 55 10             	mov    0x10(%ebp),%edx
 804b99c:	89 54 24 08          	mov    %edx,0x8(%esp)
 804b9a0:	8b 55 0c             	mov    0xc(%ebp),%edx
 804b9a3:	89 54 24 04          	mov    %edx,0x4(%esp)
 804b9a7:	89 04 24             	mov    %eax,(%esp)
 804b9aa:	e8 51 08 00 00       	call   804c200 <_ZN9__gnu_cxx13new_allocatorIiE10deallocateEPij>
 804b9af:	c9                   	leave  
 804b9b0:	c3                   	ret    
 804b9b1:	90                   	nop

0804b9b2 <_ZN9__gnu_cxx17__normal_iteratorIPKiSt6vectorIiSaIiEEEC1ERKS2_>:
 804b9b2:	55                   	push   %ebp
 804b9b3:	89 e5                	mov    %esp,%ebp
 804b9b5:	8b 45 0c             	mov    0xc(%ebp),%eax
 804b9b8:	8b 10                	mov    (%eax),%edx
 804b9ba:	8b 45 08             	mov    0x8(%ebp),%eax
 804b9bd:	89 10                	mov    %edx,(%eax)
 804b9bf:	5d                   	pop    %ebp
 804b9c0:	c3                   	ret    

0804b9c1 <_ZSt18uninitialized_copyIN9__gnu_cxx17__normal_iteratorIPKiSt6vectorIiSaIiEEEEPiET0_T_SA_S9_>:
 804b9c1:	55                   	push   %ebp
 804b9c2:	89 e5                	mov    %esp,%ebp
 804b9c4:	83 ec 18             	sub    $0x18,%esp
 804b9c7:	8b 45 10             	mov    0x10(%ebp),%eax
 804b9ca:	89 44 24 08          	mov    %eax,0x8(%esp)
 804b9ce:	8b 45 0c             	mov    0xc(%ebp),%eax
 804b9d1:	89 44 24 04          	mov    %eax,0x4(%esp)
 804b9d5:	8b 45 08             	mov    0x8(%ebp),%eax
 804b9d8:	89 04 24             	mov    %eax,(%esp)
 804b9db:	e8 33 08 00 00       	call   804c213 <_ZNSt20__uninitialized_copyILb1EE13__uninit_copyIN9__gnu_cxx17__normal_iteratorIPKiSt6vectorIiSaIiEEEEPiEET0_T_SC_SB_>
 804b9e0:	c9                   	leave  
 804b9e1:	c3                   	ret    

0804b9e2 <_ZSt8_DestroyIPiEvT_S1_>:
 804b9e2:	55                   	push   %ebp
 804b9e3:	89 e5                	mov    %esp,%ebp
 804b9e5:	83 ec 18             	sub    $0x18,%esp
 804b9e8:	8b 45 0c             	mov    0xc(%ebp),%eax
 804b9eb:	89 44 24 04          	mov    %eax,0x4(%esp)
 804b9ef:	8b 45 08             	mov    0x8(%ebp),%eax
 804b9f2:	89 04 24             	mov    %eax,(%esp)
 804b9f5:	e8 3a 08 00 00       	call   804c234 <_ZNSt12_Destroy_auxILb1EE9__destroyIPiEEvT_S3_>
 804b9fa:	c9                   	leave  
 804b9fb:	c3                   	ret    

0804b9fc <_ZNSt15binary_functionIP9MirrorImpSt6vectorIiSaIiEEvEC1Ev>:
 804b9fc:	55                   	push   %ebp
 804b9fd:	89 e5                	mov    %esp,%ebp
 804b9ff:	5d                   	pop    %ebp
 804ba00:	c3                   	ret    
 804ba01:	90                   	nop

0804ba02 <_ZNSt3tr131_Maybe_unary_or_binary_functionIvIP9MirrorImpSt6vectorIiSaIiEEEEC1Ev>:
 804ba02:	55                   	push   %ebp
 804ba03:	89 e5                	mov    %esp,%ebp
 804ba05:	83 ec 18             	sub    $0x18,%esp
 804ba08:	8b 45 08             	mov    0x8(%ebp),%eax
 804ba0b:	89 04 24             	mov    %eax,(%esp)
 804ba0e:	e8 e9 ff ff ff       	call   804b9fc <_ZNSt15binary_functionIP9MirrorImpSt6vectorIiSaIiEEvEC1Ev>
 804ba13:	c9                   	leave  
 804ba14:	c3                   	ret    
 804ba15:	90                   	nop

0804ba16 <_ZNSt3tr17_Mem_fnIM9MirrorImpFvSt6vectorIiSaIiEEEEC1ES6_>:
 804ba16:	55                   	push   %ebp
 804ba17:	89 e5                	mov    %esp,%ebp
 804ba19:	83 ec 18             	sub    $0x18,%esp
 804ba1c:	8b 45 08             	mov    0x8(%ebp),%eax
 804ba1f:	89 04 24             	mov    %eax,(%esp)
 804ba22:	e8 db ff ff ff       	call   804ba02 <_ZNSt3tr131_Maybe_unary_or_binary_functionIvIP9MirrorImpSt6vectorIiSaIiEEEEC1Ev>
 804ba27:	8b 4d 08             	mov    0x8(%ebp),%ecx
 804ba2a:	8b 45 0c             	mov    0xc(%ebp),%eax
 804ba2d:	8b 55 10             	mov    0x10(%ebp),%edx
 804ba30:	89 01                	mov    %eax,(%ecx)
 804ba32:	89 51 04             	mov    %edx,0x4(%ecx)
 804ba35:	c9                   	leave  
 804ba36:	c3                   	ret    
 804ba37:	90                   	nop

0804ba38 <_ZNSt3tr15tupleII9MirrorImpSt6vectorIiSaIiEEEEC1ERKS1_RKS4_>:
 804ba38:	55                   	push   %ebp
 804ba39:	89 e5                	mov    %esp,%ebp
 804ba3b:	83 ec 18             	sub    $0x18,%esp
 804ba3e:	8b 45 08             	mov    0x8(%ebp),%eax
 804ba41:	8b 55 10             	mov    0x10(%ebp),%edx
 804ba44:	89 54 24 08          	mov    %edx,0x8(%esp)
 804ba48:	8b 55 0c             	mov    0xc(%ebp),%edx
 804ba4b:	89 54 24 04          	mov    %edx,0x4(%esp)
 804ba4f:	89 04 24             	mov    %eax,(%esp)
 804ba52:	e8 e3 07 00 00       	call   804c23a <_ZNSt3tr111_Tuple_implILi0EI9MirrorImpSt6vectorIiSaIiEEEEC1ERKS1_RKS4_>
 804ba57:	c9                   	leave  
 804ba58:	c3                   	ret    
 804ba59:	90                   	nop

0804ba5a <_ZNKSt3tr111_Tuple_implILi0EI9MirrorImpSt6vectorIiSaIiEEEE7_M_tailEv>:
 804ba5a:	55                   	push   %ebp
 804ba5b:	89 e5                	mov    %esp,%ebp
 804ba5d:	8b 45 08             	mov    0x8(%ebp),%eax
 804ba60:	5d                   	pop    %ebp
 804ba61:	c3                   	ret    

0804ba62 <_ZNSt3tr111_Tuple_implILi1EISt6vectorIiSaIiEEEEC1ERKS4_>:
 804ba62:	55                   	push   %ebp
 804ba63:	89 e5                	mov    %esp,%ebp
 804ba65:	83 ec 18             	sub    $0x18,%esp
 804ba68:	8b 45 0c             	mov    0xc(%ebp),%eax
 804ba6b:	89 04 24             	mov    %eax,(%esp)
 804ba6e:	e8 e1 07 00 00       	call   804c254 <_ZNKSt3tr111_Tuple_implILi1EISt6vectorIiSaIiEEEE7_M_tailEv>
 804ba73:	8b 55 0c             	mov    0xc(%ebp),%edx
 804ba76:	8b 45 08             	mov    0x8(%ebp),%eax
 804ba79:	89 54 24 04          	mov    %edx,0x4(%esp)
 804ba7d:	89 04 24             	mov    %eax,(%esp)
 804ba80:	e8 15 e9 ff ff       	call   804a39a <_ZNSt6vectorIiSaIiEEC1ERKS1_>
 804ba85:	c9                   	leave  
 804ba86:	c3                   	ret    

0804ba87 <_ZNSt3tr114_Function_base13_Base_managerINS_5_BindIFNS_7_Mem_fnIM9MirrorImpFvSt6vectorIiSaIiEEEEES4_S7_EEEE14_M_get_pointerERKNS_9_Any_dataE>:
 804ba87:	55                   	push   %ebp
 804ba88:	89 e5                	mov    %esp,%ebp
 804ba8a:	83 ec 28             	sub    $0x28,%esp
 804ba8d:	8b 45 08             	mov    0x8(%ebp),%eax
 804ba90:	89 04 24             	mov    %eax,(%esp)
 804ba93:	e8 c4 07 00 00       	call   804c25c <_ZNKSt3tr19_Any_data9_M_accessIPNS_5_BindIFNS_7_Mem_fnIM9MirrorImpFvSt6vectorIiSaIiEEEEES4_S7_EEEEERKT_v>
 804ba98:	8b 00                	mov    (%eax),%eax
 804ba9a:	89 45 f4             	mov    %eax,-0xc(%ebp)
 804ba9d:	8b 45 f4             	mov    -0xc(%ebp),%eax
 804baa0:	c9                   	leave  
 804baa1:	c3                   	ret    

0804baa2 <_ZNSt3tr15_BindIFNS_7_Mem_fnIM9MirrorImpFvSt6vectorIiSaIiEEEEES2_S5_EEclIIEEENS_9result_ofIFS8_NSC_IFNS_3_MuIS2_Lb0ELb0EEES2_NS_5tupleIIDpT_EEEEE4typeENSC_IFNSD_IS5_Lb0ELb0EEES5_SI_EE4typeEEE4typeEDpRSG_>:
 804baa2:	55                   	push   %ebp
 804baa3:	89 e5                	mov    %esp,%ebp
 804baa5:	53                   	push   %ebx
 804baa6:	83 ec 34             	sub    $0x34,%esp
 804baa9:	8d 45 e7             	lea    -0x19(%ebp),%eax
 804baac:	89 04 24             	mov    %eax,(%esp)
 804baaf:	e8 87 06 00 00       	call   804c13b <_ZNSt3tr13tieIIEEENS_5tupleIIDpRT_EEES4_>
 804bab4:	83 ec 04             	sub    $0x4,%esp
 804bab7:	88 5c 24 08          	mov    %bl,0x8(%esp)
 804babb:	8d 45 f7             	lea    -0x9(%ebp),%eax
 804babe:	89 44 24 04          	mov    %eax,0x4(%esp)
 804bac2:	8b 45 08             	mov    0x8(%ebp),%eax
 804bac5:	89 04 24             	mov    %eax,(%esp)
 804bac8:	e8 a3 07 00 00       	call   804c270 <_ZNSt3tr15_BindIFNS_7_Mem_fnIM9MirrorImpFvSt6vectorIiSaIiEEEEES2_S5_EE6__callIIEILi0ELi1EEEENS_9result_ofIFS8_NSC_IFNS_3_MuIS2_Lb0ELb0EEES2_NS_5tupleIIDpT_EEEEE4typeENSC_IFNSD_IS5_Lb0ELb0EEES5_SI_EE4typeEEE4typeERKSI_NS_12_Index_tupleIIXspT0_EEEE>
 804bacd:	8b 5d fc             	mov    -0x4(%ebp),%ebx
 804bad0:	c9                   	leave  
 804bad1:	c3                   	ret    

0804bad2 <_ZNSt3tr19_Any_data9_M_accessIPNS_5_BindIFNS_7_Mem_fnIM9MirrorImpFvSt6vectorIiSaIiEEEEES4_S7_EEEEERT_v>:
 804bad2:	55                   	push   %ebp
 804bad3:	89 e5                	mov    %esp,%ebp
 804bad5:	83 ec 18             	sub    $0x18,%esp
 804bad8:	8b 45 08             	mov    0x8(%ebp),%eax
 804badb:	89 04 24             	mov    %eax,(%esp)
 804bade:	e8 dd da ff ff       	call   80495c0 <_ZNSt3tr19_Any_data9_M_accessEv>
 804bae3:	c9                   	leave  
 804bae4:	c3                   	ret    

0804bae5 <_ZNSt3tr114_Function_base13_Base_managerINS_5_BindIFNS_7_Mem_fnIM9MirrorImpFvSt6vectorIiSaIiEEEEES4_S7_EEEE8_M_cloneERNS_9_Any_dataERKSE_NS_17integral_constantIbLb0EEE>:
 804bae5:	55                   	push   %ebp
 804bae6:	89 e5                	mov    %esp,%ebp
 804bae8:	56                   	push   %esi
 804bae9:	53                   	push   %ebx
 804baea:	83 ec 10             	sub    $0x10,%esp
 804baed:	8b 45 0c             	mov    0xc(%ebp),%eax
 804baf0:	89 04 24             	mov    %eax,(%esp)
 804baf3:	e8 64 07 00 00       	call   804c25c <_ZNKSt3tr19_Any_data9_M_accessIPNS_5_BindIFNS_7_Mem_fnIM9MirrorImpFvSt6vectorIiSaIiEEEEES4_S7_EEEEERKT_v>
 804baf8:	8b 30                	mov    (%eax),%esi
 804bafa:	c7 04 24 18 00 00 00 	movl   $0x18,(%esp)
 804bb01:	e8 aa d3 ff ff       	call   8048eb0 <_Znwj@plt>
 804bb06:	89 c3                	mov    %eax,%ebx
 804bb08:	89 74 24 04          	mov    %esi,0x4(%esp)
 804bb0c:	89 1c 24             	mov    %ebx,(%esp)
 804bb0f:	e8 a2 e2 ff ff       	call   8049db6 <_ZNSt3tr15_BindIFNS_7_Mem_fnIM9MirrorImpFvSt6vectorIiSaIiEEEEES2_S5_EEC1ERKSA_>
 804bb14:	8b 45 08             	mov    0x8(%ebp),%eax
 804bb17:	89 04 24             	mov    %eax,(%esp)
 804bb1a:	e8 b3 ff ff ff       	call   804bad2 <_ZNSt3tr19_Any_data9_M_accessIPNS_5_BindIFNS_7_Mem_fnIM9MirrorImpFvSt6vectorIiSaIiEEEEES4_S7_EEEEERT_v>
 804bb1f:	89 18                	mov    %ebx,(%eax)
 804bb21:	83 c4 10             	add    $0x10,%esp
 804bb24:	5b                   	pop    %ebx
 804bb25:	5e                   	pop    %esi
 804bb26:	5d                   	pop    %ebp
 804bb27:	c3                   	ret    
 804bb28:	89 c6                	mov    %eax,%esi
 804bb2a:	89 1c 24             	mov    %ebx,(%esp)
 804bb2d:	e8 7e d4 ff ff       	call   8048fb0 <_ZdlPv@plt>
 804bb32:	89 f0                	mov    %esi,%eax
 804bb34:	89 04 24             	mov    %eax,(%esp)
 804bb37:	e8 d4 d5 ff ff       	call   8049110 <_Unwind_Resume@plt>

0804bb3c <_ZNSt3tr114_Function_base13_Base_managerINS_5_BindIFNS_7_Mem_fnIM9MirrorImpFvSt6vectorIiSaIiEEEEES4_S7_EEEE10_M_destroyERNS_9_Any_dataENS_17integral_constantIbLb0EEE>:
 804bb3c:	55                   	push   %ebp
 804bb3d:	89 e5                	mov    %esp,%ebp
 804bb3f:	53                   	push   %ebx
 804bb40:	83 ec 14             	sub    $0x14,%esp
 804bb43:	8b 45 08             	mov    0x8(%ebp),%eax
 804bb46:	89 04 24             	mov    %eax,(%esp)
 804bb49:	e8 84 ff ff ff       	call   804bad2 <_ZNSt3tr19_Any_data9_M_accessIPNS_5_BindIFNS_7_Mem_fnIM9MirrorImpFvSt6vectorIiSaIiEEEEES4_S7_EEEEERT_v>
 804bb4e:	8b 18                	mov    (%eax),%ebx
 804bb50:	85 db                	test   %ebx,%ebx
 804bb52:	74 10                	je     804bb64 <_ZNSt3tr114_Function_base13_Base_managerINS_5_BindIFNS_7_Mem_fnIM9MirrorImpFvSt6vectorIiSaIiEEEEES4_S7_EEEE10_M_destroyERNS_9_Any_dataENS_17integral_constantIbLb0EEE+0x28>
 804bb54:	89 1c 24             	mov    %ebx,(%esp)
 804bb57:	e8 44 e2 ff ff       	call   8049da0 <_ZNSt3tr15_BindIFNS_7_Mem_fnIM9MirrorImpFvSt6vectorIiSaIiEEEEES2_S5_EED1Ev>
 804bb5c:	89 1c 24             	mov    %ebx,(%esp)
 804bb5f:	e8 4c d4 ff ff       	call   8048fb0 <_ZdlPv@plt>
 804bb64:	83 c4 14             	add    $0x14,%esp
 804bb67:	5b                   	pop    %ebx
 804bb68:	5d                   	pop    %ebp
 804bb69:	c3                   	ret    

0804bb6a <_ZNSt3tr114_Function_base13_Base_managerINS_5_BindIFNS_7_Mem_fnIM9MirrorImpFvSt6vectorIiSaIiEEEEES4_S7_EEEE15_M_init_functorERNS_9_Any_dataERKSC_NS_17integral_constantIbLb0EEE>:
 804bb6a:	55                   	push   %ebp
 804bb6b:	89 e5                	mov    %esp,%ebp
 804bb6d:	56                   	push   %esi
 804bb6e:	53                   	push   %ebx
 804bb6f:	83 ec 10             	sub    $0x10,%esp
 804bb72:	c7 04 24 18 00 00 00 	movl   $0x18,(%esp)
 804bb79:	e8 32 d3 ff ff       	call   8048eb0 <_Znwj@plt>
 804bb7e:	89 c3                	mov    %eax,%ebx
 804bb80:	8b 45 0c             	mov    0xc(%ebp),%eax
 804bb83:	89 44 24 04          	mov    %eax,0x4(%esp)
 804bb87:	89 1c 24             	mov    %ebx,(%esp)
 804bb8a:	e8 27 e2 ff ff       	call   8049db6 <_ZNSt3tr15_BindIFNS_7_Mem_fnIM9MirrorImpFvSt6vectorIiSaIiEEEEES2_S5_EEC1ERKSA_>
 804bb8f:	8b 45 08             	mov    0x8(%ebp),%eax
 804bb92:	89 04 24             	mov    %eax,(%esp)
 804bb95:	e8 38 ff ff ff       	call   804bad2 <_ZNSt3tr19_Any_data9_M_accessIPNS_5_BindIFNS_7_Mem_fnIM9MirrorImpFvSt6vectorIiSaIiEEEEES4_S7_EEEEERT_v>
 804bb9a:	89 18                	mov    %ebx,(%eax)
 804bb9c:	83 c4 10             	add    $0x10,%esp
 804bb9f:	5b                   	pop    %ebx
 804bba0:	5e                   	pop    %esi
 804bba1:	5d                   	pop    %ebp
 804bba2:	c3                   	ret    
 804bba3:	89 c6                	mov    %eax,%esi
 804bba5:	89 1c 24             	mov    %ebx,(%esp)
 804bba8:	e8 03 d4 ff ff       	call   8048fb0 <_ZdlPv@plt>
 804bbad:	89 f0                	mov    %esi,%eax
 804bbaf:	89 04 24             	mov    %eax,(%esp)
 804bbb2:	e8 59 d5 ff ff       	call   8049110 <_Unwind_Resume@plt>
 804bbb7:	90                   	nop

0804bbb8 <_ZNSt12_Vector_baseIiSaIiEE12_Vector_implC1Ev>:
 804bbb8:	55                   	push   %ebp
 804bbb9:	89 e5                	mov    %esp,%ebp
 804bbbb:	83 ec 18             	sub    $0x18,%esp
 804bbbe:	8b 45 08             	mov    0x8(%ebp),%eax
 804bbc1:	89 04 24             	mov    %eax,(%esp)
 804bbc4:	e8 43 07 00 00       	call   804c30c <_ZNSaIiEC1Ev>
 804bbc9:	8b 45 08             	mov    0x8(%ebp),%eax
 804bbcc:	c7 00 00 00 00 00    	movl   $0x0,(%eax)
 804bbd2:	8b 45 08             	mov    0x8(%ebp),%eax
 804bbd5:	c7 40 04 00 00 00 00 	movl   $0x0,0x4(%eax)
 804bbdc:	8b 45 08             	mov    0x8(%ebp),%eax
 804bbdf:	c7 40 08 00 00 00 00 	movl   $0x0,0x8(%eax)
 804bbe6:	c9                   	leave  
 804bbe7:	c3                   	ret    

0804bbe8 <_ZSt13copy_backwardIPiS0_ET0_T_S2_S1_>:
 804bbe8:	55                   	push   %ebp
 804bbe9:	89 e5                	mov    %esp,%ebp
 804bbeb:	53                   	push   %ebx
 804bbec:	83 ec 14             	sub    $0x14,%esp
 804bbef:	8b 45 0c             	mov    0xc(%ebp),%eax
 804bbf2:	89 04 24             	mov    %eax,(%esp)
 804bbf5:	e8 25 07 00 00       	call   804c31f <_ZSt12__miter_baseIPiENSt11_Miter_baseIT_E13iterator_typeES2_>
 804bbfa:	89 c3                	mov    %eax,%ebx
 804bbfc:	8b 45 08             	mov    0x8(%ebp),%eax
 804bbff:	89 04 24             	mov    %eax,(%esp)
 804bc02:	e8 18 07 00 00       	call   804c31f <_ZSt12__miter_baseIPiENSt11_Miter_baseIT_E13iterator_typeES2_>
 804bc07:	8b 55 10             	mov    0x10(%ebp),%edx
 804bc0a:	89 54 24 08          	mov    %edx,0x8(%esp)
 804bc0e:	89 5c 24 04          	mov    %ebx,0x4(%esp)
 804bc12:	89 04 24             	mov    %eax,(%esp)
 804bc15:	e8 18 07 00 00       	call   804c332 <_ZSt23__copy_move_backward_a2ILb0EPiS0_ET1_T0_S2_S1_>
 804bc1a:	83 c4 14             	add    $0x14,%esp
 804bc1d:	5b                   	pop    %ebx
 804bc1e:	5d                   	pop    %ebp
 804bc1f:	c3                   	ret    

0804bc20 <_ZNKSt6vectorIiSaIiEE12_M_check_lenEjPKc>:
 804bc20:	55                   	push   %ebp
 804bc21:	89 e5                	mov    %esp,%ebp
 804bc23:	53                   	push   %ebx
 804bc24:	83 ec 24             	sub    $0x24,%esp
 804bc27:	8b 45 08             	mov    0x8(%ebp),%eax
 804bc2a:	89 04 24             	mov    %eax,(%esp)
 804bc2d:	e8 44 07 00 00       	call   804c376 <_ZNKSt6vectorIiSaIiEE8max_sizeEv>
 804bc32:	89 c3                	mov    %eax,%ebx
 804bc34:	8b 45 08             	mov    0x8(%ebp),%eax
 804bc37:	89 04 24             	mov    %eax,(%esp)
 804bc3a:	e8 51 ef ff ff       	call   804ab90 <_ZNKSt6vectorIiSaIiEE4sizeEv>
 804bc3f:	89 da                	mov    %ebx,%edx
 804bc41:	29 c2                	sub    %eax,%edx
 804bc43:	8b 45 0c             	mov    0xc(%ebp),%eax
 804bc46:	39 c2                	cmp    %eax,%edx
 804bc48:	0f 92 c0             	setb   %al
 804bc4b:	84 c0                	test   %al,%al
 804bc4d:	74 0b                	je     804bc5a <_ZNKSt6vectorIiSaIiEE12_M_check_lenEjPKc+0x3a>
 804bc4f:	8b 45 10             	mov    0x10(%ebp),%eax
 804bc52:	89 04 24             	mov    %eax,(%esp)
 804bc55:	e8 e6 d2 ff ff       	call   8048f40 <_ZSt20__throw_length_errorPKc@plt>
 804bc5a:	8b 45 08             	mov    0x8(%ebp),%eax
 804bc5d:	89 04 24             	mov    %eax,(%esp)
 804bc60:	e8 2b ef ff ff       	call   804ab90 <_ZNKSt6vectorIiSaIiEE4sizeEv>
 804bc65:	89 c3                	mov    %eax,%ebx
 804bc67:	8b 45 08             	mov    0x8(%ebp),%eax
 804bc6a:	89 04 24             	mov    %eax,(%esp)
 804bc6d:	e8 1e ef ff ff       	call   804ab90 <_ZNKSt6vectorIiSaIiEE4sizeEv>
 804bc72:	89 45 f0             	mov    %eax,-0x10(%ebp)
 804bc75:	8d 45 0c             	lea    0xc(%ebp),%eax
 804bc78:	89 44 24 04          	mov    %eax,0x4(%esp)
 804bc7c:	8d 45 f0             	lea    -0x10(%ebp),%eax
 804bc7f:	89 04 24             	mov    %eax,(%esp)
 804bc82:	e8 e2 00 00 00       	call   804bd69 <_ZSt3maxIjERKT_S2_S2_>
 804bc87:	8b 00                	mov    (%eax),%eax
 804bc89:	01 d8                	add    %ebx,%eax
 804bc8b:	89 45 f4             	mov    %eax,-0xc(%ebp)
 804bc8e:	8b 45 08             	mov    0x8(%ebp),%eax
 804bc91:	89 04 24             	mov    %eax,(%esp)
 804bc94:	e8 f7 ee ff ff       	call   804ab90 <_ZNKSt6vectorIiSaIiEE4sizeEv>
 804bc99:	3b 45 f4             	cmp    -0xc(%ebp),%eax
 804bc9c:	77 10                	ja     804bcae <_ZNKSt6vectorIiSaIiEE12_M_check_lenEjPKc+0x8e>
 804bc9e:	8b 45 08             	mov    0x8(%ebp),%eax
 804bca1:	89 04 24             	mov    %eax,(%esp)
 804bca4:	e8 cd 06 00 00       	call   804c376 <_ZNKSt6vectorIiSaIiEE8max_sizeEv>
 804bca9:	3b 45 f4             	cmp    -0xc(%ebp),%eax
 804bcac:	73 0d                	jae    804bcbb <_ZNKSt6vectorIiSaIiEE12_M_check_lenEjPKc+0x9b>
 804bcae:	8b 45 08             	mov    0x8(%ebp),%eax
 804bcb1:	89 04 24             	mov    %eax,(%esp)
 804bcb4:	e8 bd 06 00 00       	call   804c376 <_ZNKSt6vectorIiSaIiEE8max_sizeEv>
 804bcb9:	eb 03                	jmp    804bcbe <_ZNKSt6vectorIiSaIiEE12_M_check_lenEjPKc+0x9e>
 804bcbb:	8b 45 f4             	mov    -0xc(%ebp),%eax
 804bcbe:	83 c4 24             	add    $0x24,%esp
 804bcc1:	5b                   	pop    %ebx
 804bcc2:	5d                   	pop    %ebp
 804bcc3:	c3                   	ret    

0804bcc4 <_ZN9__gnu_cxxmiIPiSt6vectorIiSaIiEEEENS_17__normal_iteratorIT_T0_E15difference_typeERKS8_SB_>:
 804bcc4:	55                   	push   %ebp
 804bcc5:	89 e5                	mov    %esp,%ebp
 804bcc7:	53                   	push   %ebx
 804bcc8:	83 ec 14             	sub    $0x14,%esp
 804bccb:	8b 45 08             	mov    0x8(%ebp),%eax
 804bcce:	89 04 24             	mov    %eax,(%esp)
 804bcd1:	e8 32 ed ff ff       	call   804aa08 <_ZNK9__gnu_cxx17__normal_iteratorIPiSt6vectorIiSaIiEEE4baseEv>
 804bcd6:	8b 00                	mov    (%eax),%eax
 804bcd8:	89 c3                	mov    %eax,%ebx
 804bcda:	8b 45 0c             	mov    0xc(%ebp),%eax
 804bcdd:	89 04 24             	mov    %eax,(%esp)
 804bce0:	e8 23 ed ff ff       	call   804aa08 <_ZNK9__gnu_cxx17__normal_iteratorIPiSt6vectorIiSaIiEEE4baseEv>
 804bce5:	8b 00                	mov    (%eax),%eax
 804bce7:	89 da                	mov    %ebx,%edx
 804bce9:	29 c2                	sub    %eax,%edx
 804bceb:	89 d0                	mov    %edx,%eax
 804bced:	c1 f8 02             	sar    $0x2,%eax
 804bcf0:	83 c4 14             	add    $0x14,%esp
 804bcf3:	5b                   	pop    %ebx
 804bcf4:	5d                   	pop    %ebp
 804bcf5:	c3                   	ret    

0804bcf6 <_ZSt22__uninitialized_move_aIPiS0_SaIiEET0_T_S3_S2_RT1_>:
 804bcf6:	55                   	push   %ebp
 804bcf7:	89 e5                	mov    %esp,%ebp
 804bcf9:	83 ec 18             	sub    $0x18,%esp
 804bcfc:	8b 45 14             	mov    0x14(%ebp),%eax
 804bcff:	89 44 24 0c          	mov    %eax,0xc(%esp)
 804bd03:	8b 45 10             	mov    0x10(%ebp),%eax
 804bd06:	89 44 24 08          	mov    %eax,0x8(%esp)
 804bd0a:	8b 45 0c             	mov    0xc(%ebp),%eax
 804bd0d:	89 44 24 04          	mov    %eax,0x4(%esp)
 804bd11:	8b 45 08             	mov    0x8(%ebp),%eax
 804bd14:	89 04 24             	mov    %eax,(%esp)
 804bd17:	e8 75 06 00 00       	call   804c391 <_ZSt22__uninitialized_copy_aIPiS0_iET0_T_S2_S1_RSaIT1_E>
 804bd1c:	c9                   	leave  
 804bd1d:	c3                   	ret    

0804bd1e <_ZN9__gnu_cxx13new_allocatorIiE7destroyEPi>:
 804bd1e:	55                   	push   %ebp
 804bd1f:	89 e5                	mov    %esp,%ebp
 804bd21:	5d                   	pop    %ebp
 804bd22:	c3                   	ret    
 804bd23:	90                   	nop

0804bd24 <_ZNSaINSt3tr18functionIFvvEEEEC1Ev>:
 804bd24:	55                   	push   %ebp
 804bd25:	89 e5                	mov    %esp,%ebp
 804bd27:	83 ec 18             	sub    $0x18,%esp
 804bd2a:	8b 45 08             	mov    0x8(%ebp),%eax
 804bd2d:	89 04 24             	mov    %eax,(%esp)
 804bd30:	e8 7d 06 00 00       	call   804c3b2 <_ZN9__gnu_cxx13new_allocatorINSt3tr18functionIFvvEEEEC1Ev>
 804bd35:	c9                   	leave  
 804bd36:	c3                   	ret    
 804bd37:	90                   	nop

0804bd38 <_ZNSt15_Deque_iteratorINSt3tr18functionIFvvEEERS3_PS3_EC1Ev>:
 804bd38:	55                   	push   %ebp
 804bd39:	89 e5                	mov    %esp,%ebp
 804bd3b:	8b 45 08             	mov    0x8(%ebp),%eax
 804bd3e:	c7 00 00 00 00 00    	movl   $0x0,(%eax)
 804bd44:	8b 45 08             	mov    0x8(%ebp),%eax
 804bd47:	c7 40 04 00 00 00 00 	movl   $0x0,0x4(%eax)
 804bd4e:	8b 45 08             	mov    0x8(%ebp),%eax
 804bd51:	c7 40 08 00 00 00 00 	movl   $0x0,0x8(%eax)
 804bd58:	8b 45 08             	mov    0x8(%ebp),%eax
 804bd5b:	c7 40 0c 00 00 00 00 	movl   $0x0,0xc(%eax)
 804bd62:	5d                   	pop    %ebp
 804bd63:	c3                   	ret    

0804bd64 <_ZN9__gnu_cxx13new_allocatorINSt3tr18functionIFvvEEEED1Ev>:
 804bd64:	55                   	push   %ebp
 804bd65:	89 e5                	mov    %esp,%ebp
 804bd67:	5d                   	pop    %ebp
 804bd68:	c3                   	ret    

0804bd69 <_ZSt3maxIjERKT_S2_S2_>:
 804bd69:	55                   	push   %ebp
 804bd6a:	89 e5                	mov    %esp,%ebp
 804bd6c:	8b 45 08             	mov    0x8(%ebp),%eax
 804bd6f:	8b 10                	mov    (%eax),%edx
 804bd71:	8b 45 0c             	mov    0xc(%ebp),%eax
 804bd74:	8b 00                	mov    (%eax),%eax
 804bd76:	39 c2                	cmp    %eax,%edx
 804bd78:	73 05                	jae    804bd7f <_ZSt3maxIjERKT_S2_S2_+0x16>
 804bd7a:	8b 45 0c             	mov    0xc(%ebp),%eax
 804bd7d:	eb 03                	jmp    804bd82 <_ZSt3maxIjERKT_S2_S2_+0x19>
 804bd7f:	8b 45 08             	mov    0x8(%ebp),%eax
 804bd82:	5d                   	pop    %ebp
 804bd83:	c3                   	ret    

0804bd84 <_ZNSt11_Deque_baseINSt3tr18functionIFvvEEESaIS3_EE15_M_allocate_mapEj>:
 804bd84:	55                   	push   %ebp
 804bd85:	89 e5                	mov    %esp,%ebp
 804bd87:	53                   	push   %ebx
 804bd88:	83 ec 24             	sub    $0x24,%esp
 804bd8b:	8d 45 f7             	lea    -0x9(%ebp),%eax
 804bd8e:	8b 55 08             	mov    0x8(%ebp),%edx
 804bd91:	89 54 24 04          	mov    %edx,0x4(%esp)
 804bd95:	89 04 24             	mov    %eax,(%esp)
 804bd98:	e8 1d 01 00 00       	call   804beba <_ZNKSt11_Deque_baseINSt3tr18functionIFvvEEESaIS3_EE20_M_get_map_allocatorEv>
 804bd9d:	83 ec 04             	sub    $0x4,%esp
 804bda0:	c7 44 24 08 00 00 00 	movl   $0x0,0x8(%esp)
 804bda7:	00 
 804bda8:	8b 45 0c             	mov    0xc(%ebp),%eax
 804bdab:	89 44 24 04          	mov    %eax,0x4(%esp)
 804bdaf:	8d 45 f7             	lea    -0x9(%ebp),%eax
 804bdb2:	89 04 24             	mov    %eax,(%esp)
 804bdb5:	e8 fe 05 00 00       	call   804c3b8 <_ZN9__gnu_cxx13new_allocatorIPNSt3tr18functionIFvvEEEE8allocateEjPKv>
 804bdba:	89 c3                	mov    %eax,%ebx
 804bdbc:	8d 45 f7             	lea    -0x9(%ebp),%eax
 804bdbf:	89 04 24             	mov    %eax,(%esp)
 804bdc2:	e8 1b 01 00 00       	call   804bee2 <_ZNSaIPNSt3tr18functionIFvvEEEED1Ev>
 804bdc7:	89 d8                	mov    %ebx,%eax
 804bdc9:	8b 5d fc             	mov    -0x4(%ebp),%ebx
 804bdcc:	c9                   	leave  
 804bdcd:	c3                   	ret    
 804bdce:	89 c3                	mov    %eax,%ebx
 804bdd0:	8d 45 f7             	lea    -0x9(%ebp),%eax
 804bdd3:	89 04 24             	mov    %eax,(%esp)
 804bdd6:	e8 07 01 00 00       	call   804bee2 <_ZNSaIPNSt3tr18functionIFvvEEEED1Ev>
 804bddb:	89 d8                	mov    %ebx,%eax
 804bddd:	89 04 24             	mov    %eax,(%esp)
 804bde0:	e8 2b d3 ff ff       	call   8049110 <_Unwind_Resume@plt>
 804bde5:	90                   	nop

0804bde6 <_ZNSt11_Deque_baseINSt3tr18functionIFvvEEESaIS3_EE15_M_create_nodesEPPS3_S7_>:
 804bde6:	55                   	push   %ebp
 804bde7:	89 e5                	mov    %esp,%ebp
 804bde9:	53                   	push   %ebx
 804bdea:	83 ec 24             	sub    $0x24,%esp
 804bded:	8b 45 0c             	mov    0xc(%ebp),%eax
 804bdf0:	89 45 f4             	mov    %eax,-0xc(%ebp)
 804bdf3:	eb 16                	jmp    804be0b <_ZNSt11_Deque_baseINSt3tr18functionIFvvEEESaIS3_EE15_M_create_nodesEPPS3_S7_+0x25>
 804bdf5:	8b 45 08             	mov    0x8(%ebp),%eax
 804bdf8:	89 04 24             	mov    %eax,(%esp)
 804bdfb:	e8 da 02 00 00       	call   804c0da <_ZNSt11_Deque_baseINSt3tr18functionIFvvEEESaIS3_EE16_M_allocate_nodeEv>
 804be00:	89 c2                	mov    %eax,%edx
 804be02:	8b 45 f4             	mov    -0xc(%ebp),%eax
 804be05:	89 10                	mov    %edx,(%eax)
 804be07:	83 45 f4 04          	addl   $0x4,-0xc(%ebp)
 804be0b:	8b 45 f4             	mov    -0xc(%ebp),%eax
 804be0e:	3b 45 10             	cmp    0x10(%ebp),%eax
 804be11:	0f 92 c0             	setb   %al
 804be14:	84 c0                	test   %al,%al
 804be16:	75 dd                	jne    804bdf5 <_ZNSt11_Deque_baseINSt3tr18functionIFvvEEESaIS3_EE15_M_create_nodesEPPS3_S7_+0xf>
 804be18:	eb 37                	jmp    804be51 <_ZNSt11_Deque_baseINSt3tr18functionIFvvEEESaIS3_EE15_M_create_nodesEPPS3_S7_+0x6b>
 804be1a:	89 c3                	mov    %eax,%ebx
 804be1c:	e8 8f d2 ff ff       	call   80490b0 <__cxa_end_catch@plt>
 804be21:	89 d8                	mov    %ebx,%eax
 804be23:	89 04 24             	mov    %eax,(%esp)
 804be26:	e8 e5 d2 ff ff       	call   8049110 <_Unwind_Resume@plt>
 804be2b:	89 04 24             	mov    %eax,(%esp)
 804be2e:	e8 cd d0 ff ff       	call   8048f00 <__cxa_begin_catch@plt>
 804be33:	8b 45 f4             	mov    -0xc(%ebp),%eax
 804be36:	89 44 24 08          	mov    %eax,0x8(%esp)
 804be3a:	8b 45 0c             	mov    0xc(%ebp),%eax
 804be3d:	89 44 24 04          	mov    %eax,0x4(%esp)
 804be41:	8b 45 08             	mov    0x8(%ebp),%eax
 804be44:	89 04 24             	mov    %eax,(%esp)
 804be47:	e8 e8 f4 ff ff       	call   804b334 <_ZNSt11_Deque_baseINSt3tr18functionIFvvEEESaIS3_EE16_M_destroy_nodesEPPS3_S7_>
 804be4c:	e8 2f d2 ff ff       	call   8049080 <__cxa_rethrow@plt>
 804be51:	83 c4 24             	add    $0x24,%esp
 804be54:	5b                   	pop    %ebx
 804be55:	5d                   	pop    %ebp
 804be56:	c3                   	ret    
 804be57:	90                   	nop

0804be58 <_ZNSt15_Deque_iteratorINSt3tr18functionIFvvEEERS3_PS3_E11_M_set_nodeEPS5_>:
 804be58:	55                   	push   %ebp
 804be59:	89 e5                	mov    %esp,%ebp
 804be5b:	53                   	push   %ebx
 804be5c:	83 ec 04             	sub    $0x4,%esp
 804be5f:	8b 45 08             	mov    0x8(%ebp),%eax
 804be62:	8b 55 0c             	mov    0xc(%ebp),%edx
 804be65:	89 50 0c             	mov    %edx,0xc(%eax)
 804be68:	8b 45 0c             	mov    0xc(%ebp),%eax
 804be6b:	8b 10                	mov    (%eax),%edx
 804be6d:	8b 45 08             	mov    0x8(%ebp),%eax
 804be70:	89 50 04             	mov    %edx,0x4(%eax)
 804be73:	8b 45 08             	mov    0x8(%ebp),%eax
 804be76:	8b 58 04             	mov    0x4(%eax),%ebx
 804be79:	e8 6a 05 00 00       	call   804c3e8 <_ZNSt15_Deque_iteratorINSt3tr18functionIFvvEEERS3_PS3_E14_S_buffer_sizeEv>
 804be7e:	c1 e0 04             	shl    $0x4,%eax
 804be81:	8d 14 03             	lea    (%ebx,%eax,1),%edx
 804be84:	8b 45 08             	mov    0x8(%ebp),%eax
 804be87:	89 50 08             	mov    %edx,0x8(%eax)
 804be8a:	83 c4 04             	add    $0x4,%esp
 804be8d:	5b                   	pop    %ebx
 804be8e:	5d                   	pop    %ebp
 804be8f:	c3                   	ret    

0804be90 <_ZNSt11_Deque_baseINSt3tr18functionIFvvEEESaIS3_EE18_M_deallocate_nodeEPS3_>:
 804be90:	55                   	push   %ebp
 804be91:	89 e5                	mov    %esp,%ebp
 804be93:	83 ec 18             	sub    $0x18,%esp
 804be96:	c7 04 24 10 00 00 00 	movl   $0x10,(%esp)
 804be9d:	e8 fb d6 ff ff       	call   804959d <_ZSt16__deque_buf_sizej>
 804bea2:	8b 55 08             	mov    0x8(%ebp),%edx
 804bea5:	89 44 24 08          	mov    %eax,0x8(%esp)
 804bea9:	8b 45 0c             	mov    0xc(%ebp),%eax
 804beac:	89 44 24 04          	mov    %eax,0x4(%esp)
 804beb0:	89 14 24             	mov    %edx,(%esp)
 804beb3:	e8 44 05 00 00       	call   804c3fc <_ZN9__gnu_cxx13new_allocatorINSt3tr18functionIFvvEEEE10deallocateEPS4_j>
 804beb8:	c9                   	leave  
 804beb9:	c3                   	ret    

0804beba <_ZNKSt11_Deque_baseINSt3tr18functionIFvvEEESaIS3_EE20_M_get_map_allocatorEv>:
 804beba:	55                   	push   %ebp
 804bebb:	89 e5                	mov    %esp,%ebp
 804bebd:	83 ec 18             	sub    $0x18,%esp
 804bec0:	8b 45 0c             	mov    0xc(%ebp),%eax
 804bec3:	89 04 24             	mov    %eax,(%esp)
 804bec6:	e8 c7 f5 ff ff       	call   804b492 <_ZNKSt11_Deque_baseINSt3tr18functionIFvvEEESaIS3_EE19_M_get_Tp_allocatorEv>
 804becb:	89 44 24 04          	mov    %eax,0x4(%esp)
 804becf:	8b 45 08             	mov    0x8(%ebp),%eax
 804bed2:	89 04 24             	mov    %eax,(%esp)
 804bed5:	e8 36 05 00 00       	call   804c410 <_ZNSaIPNSt3tr18functionIFvvEEEEC1IS2_EERKSaIT_E>
 804beda:	8b 45 08             	mov    0x8(%ebp),%eax
 804bedd:	c9                   	leave  
 804bede:	c2 04 00             	ret    $0x4
 804bee1:	90                   	nop

0804bee2 <_ZNSaIPNSt3tr18functionIFvvEEEED1Ev>:
 804bee2:	55                   	push   %ebp
 804bee3:	89 e5                	mov    %esp,%ebp
 804bee5:	83 ec 18             	sub    $0x18,%esp
 804bee8:	8b 45 08             	mov    0x8(%ebp),%eax
 804beeb:	89 04 24             	mov    %eax,(%esp)
 804beee:	e8 31 05 00 00       	call   804c424 <_ZN9__gnu_cxx13new_allocatorIPNSt3tr18functionIFvvEEEED1Ev>
 804bef3:	c9                   	leave  
 804bef4:	c3                   	ret    
 804bef5:	90                   	nop

0804bef6 <_ZN9__gnu_cxx13new_allocatorIPNSt3tr18functionIFvvEEEE10deallocateEPS5_j>:
 804bef6:	55                   	push   %ebp
 804bef7:	89 e5                	mov    %esp,%ebp
 804bef9:	83 ec 18             	sub    $0x18,%esp
 804befc:	8b 45 0c             	mov    0xc(%ebp),%eax
 804beff:	89 04 24             	mov    %eax,(%esp)
 804bf02:	e8 a9 d0 ff ff       	call   8048fb0 <_ZdlPv@plt>
 804bf07:	c9                   	leave  
 804bf08:	c3                   	ret    

0804bf09 <_ZNSt5dequeINSt3tr18functionIFvvEEESaIS3_EE14_S_buffer_sizeEv>:
 804bf09:	55                   	push   %ebp
 804bf0a:	89 e5                	mov    %esp,%ebp
 804bf0c:	83 ec 18             	sub    $0x18,%esp
 804bf0f:	c7 04 24 10 00 00 00 	movl   $0x10,(%esp)
 804bf16:	e8 82 d6 ff ff       	call   804959d <_ZSt16__deque_buf_sizej>
 804bf1b:	c9                   	leave  
 804bf1c:	c3                   	ret    

0804bf1d <_ZSt8_DestroyIPNSt3tr18functionIFvvEEES3_EvT_S5_RSaIT0_E>:
 804bf1d:	55                   	push   %ebp
 804bf1e:	89 e5                	mov    %esp,%ebp
 804bf20:	83 ec 18             	sub    $0x18,%esp
 804bf23:	8b 45 0c             	mov    0xc(%ebp),%eax
 804bf26:	89 44 24 04          	mov    %eax,0x4(%esp)
 804bf2a:	8b 45 08             	mov    0x8(%ebp),%eax
 804bf2d:	89 04 24             	mov    %eax,(%esp)
 804bf30:	e8 f4 04 00 00       	call   804c429 <_ZSt8_DestroyIPNSt3tr18functionIFvvEEEEvT_S5_>
 804bf35:	c9                   	leave  
 804bf36:	c3                   	ret    

0804bf37 <_ZStmiINSt3tr18functionIFvvEEERS3_PS3_ENSt15_Deque_iteratorIT_T0_T1_E15difference_typeERKSA_SD_>:
 804bf37:	55                   	push   %ebp
 804bf38:	89 e5                	mov    %esp,%ebp
 804bf3a:	53                   	push   %ebx
 804bf3b:	83 ec 04             	sub    $0x4,%esp
 804bf3e:	e8 a5 04 00 00       	call   804c3e8 <_ZNSt15_Deque_iteratorINSt3tr18functionIFvvEEERS3_PS3_E14_S_buffer_sizeEv>
 804bf43:	89 c2                	mov    %eax,%edx
 804bf45:	8b 45 08             	mov    0x8(%ebp),%eax
 804bf48:	8b 40 0c             	mov    0xc(%eax),%eax
 804bf4b:	89 c1                	mov    %eax,%ecx
 804bf4d:	8b 45 0c             	mov    0xc(%ebp),%eax
 804bf50:	8b 40 0c             	mov    0xc(%eax),%eax
 804bf53:	89 cb                	mov    %ecx,%ebx
 804bf55:	29 c3                	sub    %eax,%ebx
 804bf57:	89 d8                	mov    %ebx,%eax
 804bf59:	c1 f8 02             	sar    $0x2,%eax
 804bf5c:	83 e8 01             	sub    $0x1,%eax
 804bf5f:	0f af d0             	imul   %eax,%edx
 804bf62:	8b 45 08             	mov    0x8(%ebp),%eax
 804bf65:	8b 00                	mov    (%eax),%eax
 804bf67:	89 c1                	mov    %eax,%ecx
 804bf69:	8b 45 08             	mov    0x8(%ebp),%eax
 804bf6c:	8b 40 04             	mov    0x4(%eax),%eax
 804bf6f:	89 cb                	mov    %ecx,%ebx
 804bf71:	29 c3                	sub    %eax,%ebx
 804bf73:	89 d8                	mov    %ebx,%eax
 804bf75:	c1 f8 04             	sar    $0x4,%eax
 804bf78:	8d 0c 02             	lea    (%edx,%eax,1),%ecx
 804bf7b:	8b 45 0c             	mov    0xc(%ebp),%eax
 804bf7e:	8b 40 08             	mov    0x8(%eax),%eax
 804bf81:	89 c2                	mov    %eax,%edx
 804bf83:	8b 45 0c             	mov    0xc(%ebp),%eax
 804bf86:	8b 00                	mov    (%eax),%eax
 804bf88:	89 d3                	mov    %edx,%ebx
 804bf8a:	29 c3                	sub    %eax,%ebx
 804bf8c:	89 d8                	mov    %ebx,%eax
 804bf8e:	c1 f8 04             	sar    $0x4,%eax
 804bf91:	01 c8                	add    %ecx,%eax
 804bf93:	83 c4 04             	add    $0x4,%esp
 804bf96:	5b                   	pop    %ebx
 804bf97:	5d                   	pop    %ebp
 804bf98:	c3                   	ret    
 804bf99:	90                   	nop

0804bf9a <_ZNSt11_Deque_baseINSt3tr18functionIFvvEEESaIS3_EE11_Deque_implC1ERKS4_>:
 804bf9a:	55                   	push   %ebp
 804bf9b:	89 e5                	mov    %esp,%ebp
 804bf9d:	83 ec 18             	sub    $0x18,%esp
 804bfa0:	8b 45 0c             	mov    0xc(%ebp),%eax
 804bfa3:	89 44 24 04          	mov    %eax,0x4(%esp)
 804bfa7:	8b 45 08             	mov    0x8(%ebp),%eax
 804bfaa:	89 04 24             	mov    %eax,(%esp)
 804bfad:	e8 92 04 00 00       	call   804c444 <_ZNSaINSt3tr18functionIFvvEEEEC1ERKS3_>
 804bfb2:	8b 45 08             	mov    0x8(%ebp),%eax
 804bfb5:	c7 00 00 00 00 00    	movl   $0x0,(%eax)
 804bfbb:	8b 45 08             	mov    0x8(%ebp),%eax
 804bfbe:	c7 40 04 00 00 00 00 	movl   $0x0,0x4(%eax)
 804bfc5:	8b 45 08             	mov    0x8(%ebp),%eax
 804bfc8:	83 c0 08             	add    $0x8,%eax
 804bfcb:	89 04 24             	mov    %eax,(%esp)
 804bfce:	e8 65 fd ff ff       	call   804bd38 <_ZNSt15_Deque_iteratorINSt3tr18functionIFvvEEERS3_PS3_EC1Ev>
 804bfd3:	8b 45 08             	mov    0x8(%ebp),%eax
 804bfd6:	83 c0 18             	add    $0x18,%eax
 804bfd9:	89 04 24             	mov    %eax,(%esp)
 804bfdc:	e8 57 fd ff ff       	call   804bd38 <_ZNSt15_Deque_iteratorINSt3tr18functionIFvvEEERS3_PS3_EC1Ev>
 804bfe1:	c9                   	leave  
 804bfe2:	c3                   	ret    
 804bfe3:	90                   	nop

0804bfe4 <_ZNSt15_Deque_iteratorINSt3tr18functionIFvvEEERKS3_PS4_EC1ERKS_IS3_RS3_PS3_E>:
 804bfe4:	55                   	push   %ebp
 804bfe5:	89 e5                	mov    %esp,%ebp
 804bfe7:	8b 45 0c             	mov    0xc(%ebp),%eax
 804bfea:	8b 10                	mov    (%eax),%edx
 804bfec:	8b 45 08             	mov    0x8(%ebp),%eax
 804bfef:	89 10                	mov    %edx,(%eax)
 804bff1:	8b 45 0c             	mov    0xc(%ebp),%eax
 804bff4:	8b 50 04             	mov    0x4(%eax),%edx
 804bff7:	8b 45 08             	mov    0x8(%ebp),%eax
 804bffa:	89 50 04             	mov    %edx,0x4(%eax)
 804bffd:	8b 45 0c             	mov    0xc(%ebp),%eax
 804c000:	8b 50 08             	mov    0x8(%eax),%edx
 804c003:	8b 45 08             	mov    0x8(%ebp),%eax
 804c006:	89 50 08             	mov    %edx,0x8(%eax)
 804c009:	8b 45 0c             	mov    0xc(%ebp),%eax
 804c00c:	8b 50 0c             	mov    0xc(%eax),%edx
 804c00f:	8b 45 08             	mov    0x8(%ebp),%eax
 804c012:	89 50 0c             	mov    %edx,0xc(%eax)
 804c015:	5d                   	pop    %ebp
 804c016:	c3                   	ret    

0804c017 <_ZSt18uninitialized_copyISt15_Deque_iteratorINSt3tr18functionIFvvEEERKS4_PS5_ES0_IS4_RS4_PS4_EET0_T_SD_SC_>:
 804c017:	55                   	push   %ebp
 804c018:	89 e5                	mov    %esp,%ebp
 804c01a:	83 ec 48             	sub    $0x48,%esp
 804c01d:	8b 45 2c             	mov    0x2c(%ebp),%eax
 804c020:	89 44 24 04          	mov    %eax,0x4(%esp)
 804c024:	8d 45 e8             	lea    -0x18(%ebp),%eax
 804c027:	89 04 24             	mov    %eax,(%esp)
 804c02a:	e8 51 e7 ff ff       	call   804a780 <_ZNSt15_Deque_iteratorINSt3tr18functionIFvvEEERS3_PS3_EC1ERKS6_>
 804c02f:	8b 45 08             	mov    0x8(%ebp),%eax
 804c032:	8d 55 e8             	lea    -0x18(%ebp),%edx
 804c035:	89 54 24 24          	mov    %edx,0x24(%esp)
 804c039:	8b 55 1c             	mov    0x1c(%ebp),%edx
 804c03c:	89 54 24 14          	mov    %edx,0x14(%esp)
 804c040:	8b 55 20             	mov    0x20(%ebp),%edx
 804c043:	89 54 24 18          	mov    %edx,0x18(%esp)
 804c047:	8b 55 24             	mov    0x24(%ebp),%edx
 804c04a:	89 54 24 1c          	mov    %edx,0x1c(%esp)
 804c04e:	8b 55 28             	mov    0x28(%ebp),%edx
 804c051:	89 54 24 20          	mov    %edx,0x20(%esp)
 804c055:	8b 55 0c             	mov    0xc(%ebp),%edx
 804c058:	89 54 24 04          	mov    %edx,0x4(%esp)
 804c05c:	8b 55 10             	mov    0x10(%ebp),%edx
 804c05f:	89 54 24 08          	mov    %edx,0x8(%esp)
 804c063:	8b 55 14             	mov    0x14(%ebp),%edx
 804c066:	89 54 24 0c          	mov    %edx,0xc(%esp)
 804c06a:	8b 55 18             	mov    0x18(%ebp),%edx
 804c06d:	89 54 24 10          	mov    %edx,0x10(%esp)
 804c071:	89 04 24             	mov    %eax,(%esp)
 804c074:	e8 e5 03 00 00       	call   804c45e <_ZNSt20__uninitialized_copyILb0EE13__uninit_copyISt15_Deque_iteratorINSt3tr18functionIFvvEEERKS6_PS7_ES2_IS6_RS6_PS6_EEET0_T_SF_SE_>
 804c079:	83 ec 04             	sub    $0x4,%esp
 804c07c:	8b 45 08             	mov    0x8(%ebp),%eax
 804c07f:	c9                   	leave  
 804c080:	c2 04 00             	ret    $0x4
 804c083:	90                   	nop

0804c084 <_ZNSt5dequeINSt3tr18functionIFvvEEESaIS3_EE22_M_reserve_map_at_backEj>:
 804c084:	55                   	push   %ebp
 804c085:	89 e5                	mov    %esp,%ebp
 804c087:	56                   	push   %esi
 804c088:	53                   	push   %ebx
 804c089:	83 ec 10             	sub    $0x10,%esp
 804c08c:	8b 45 0c             	mov    0xc(%ebp),%eax
 804c08f:	8d 58 01             	lea    0x1(%eax),%ebx
 804c092:	8b 45 08             	mov    0x8(%ebp),%eax
 804c095:	8b 50 04             	mov    0x4(%eax),%edx
 804c098:	8b 45 08             	mov    0x8(%ebp),%eax
 804c09b:	8b 40 24             	mov    0x24(%eax),%eax
 804c09e:	89 c1                	mov    %eax,%ecx
 804c0a0:	8b 45 08             	mov    0x8(%ebp),%eax
 804c0a3:	8b 00                	mov    (%eax),%eax
 804c0a5:	89 ce                	mov    %ecx,%esi
 804c0a7:	29 c6                	sub    %eax,%esi
 804c0a9:	89 f0                	mov    %esi,%eax
 804c0ab:	c1 f8 02             	sar    $0x2,%eax
 804c0ae:	89 d1                	mov    %edx,%ecx
 804c0b0:	29 c1                	sub    %eax,%ecx
 804c0b2:	89 c8                	mov    %ecx,%eax
 804c0b4:	39 c3                	cmp    %eax,%ebx
 804c0b6:	76 1a                	jbe    804c0d2 <_ZNSt5dequeINSt3tr18functionIFvvEEESaIS3_EE22_M_reserve_map_at_backEj+0x4e>
 804c0b8:	c7 44 24 08 00 00 00 	movl   $0x0,0x8(%esp)
 804c0bf:	00 
 804c0c0:	8b 45 0c             	mov    0xc(%ebp),%eax
 804c0c3:	89 44 24 04          	mov    %eax,0x4(%esp)
 804c0c7:	8b 45 08             	mov    0x8(%ebp),%eax
 804c0ca:	89 04 24             	mov    %eax,(%esp)
 804c0cd:	e8 60 04 00 00       	call   804c532 <_ZNSt5dequeINSt3tr18functionIFvvEEESaIS3_EE17_M_reallocate_mapEjb>
 804c0d2:	83 c4 10             	add    $0x10,%esp
 804c0d5:	5b                   	pop    %ebx
 804c0d6:	5e                   	pop    %esi
 804c0d7:	5d                   	pop    %ebp
 804c0d8:	c3                   	ret    
 804c0d9:	90                   	nop

0804c0da <_ZNSt11_Deque_baseINSt3tr18functionIFvvEEESaIS3_EE16_M_allocate_nodeEv>:
 804c0da:	55                   	push   %ebp
 804c0db:	89 e5                	mov    %esp,%ebp
 804c0dd:	83 ec 18             	sub    $0x18,%esp
 804c0e0:	c7 04 24 10 00 00 00 	movl   $0x10,(%esp)
 804c0e7:	e8 b1 d4 ff ff       	call   804959d <_ZSt16__deque_buf_sizej>
 804c0ec:	8b 55 08             	mov    0x8(%ebp),%edx
 804c0ef:	c7 44 24 08 00 00 00 	movl   $0x0,0x8(%esp)
 804c0f6:	00 
 804c0f7:	89 44 24 04          	mov    %eax,0x4(%esp)
 804c0fb:	89 14 24             	mov    %edx,(%esp)
 804c0fe:	e8 fb 05 00 00       	call   804c6fe <_ZN9__gnu_cxx13new_allocatorINSt3tr18functionIFvvEEEE8allocateEjPKv>
 804c103:	c9                   	leave  
 804c104:	c3                   	ret    
 804c105:	90                   	nop

0804c106 <_ZNSt3tr111_Tuple_implILi0EI9MirrorImpiEEC1ERKS1_RKi>:
 804c106:	55                   	push   %ebp
 804c107:	89 e5                	mov    %esp,%ebp
 804c109:	83 ec 18             	sub    $0x18,%esp
 804c10c:	8b 45 08             	mov    0x8(%ebp),%eax
 804c10f:	8b 55 10             	mov    0x10(%ebp),%edx
 804c112:	89 54 24 04          	mov    %edx,0x4(%esp)
 804c116:	89 04 24             	mov    %eax,(%esp)
 804c119:	e8 16 06 00 00       	call   804c734 <_ZNSt3tr111_Tuple_implILi1EIiEEC1ERKi>
 804c11e:	c9                   	leave  
 804c11f:	c3                   	ret    

0804c120 <_ZNKSt3tr111_Tuple_implILi1EIiEE7_M_tailEv>:
 804c120:	55                   	push   %ebp
 804c121:	89 e5                	mov    %esp,%ebp
 804c123:	8b 45 08             	mov    0x8(%ebp),%eax
 804c126:	5d                   	pop    %ebp
 804c127:	c3                   	ret    

0804c128 <_ZNKSt3tr19_Any_data9_M_accessIPNS_5_BindIFNS_7_Mem_fnIM9MirrorImpFviEEES4_iEEEEERKT_v>:
 804c128:	55                   	push   %ebp
 804c129:	89 e5                	mov    %esp,%ebp
 804c12b:	83 ec 18             	sub    $0x18,%esp
 804c12e:	8b 45 08             	mov    0x8(%ebp),%eax
 804c131:	89 04 24             	mov    %eax,(%esp)
 804c134:	e8 8f d4 ff ff       	call   80495c8 <_ZNKSt3tr19_Any_data9_M_accessEv>
 804c139:	c9                   	leave  
 804c13a:	c3                   	ret    

0804c13b <_ZNSt3tr13tieIIEEENS_5tupleIIDpRT_EEES4_>:
 804c13b:	55                   	push   %ebp
 804c13c:	89 e5                	mov    %esp,%ebp
 804c13e:	8b 45 08             	mov    0x8(%ebp),%eax
 804c141:	5d                   	pop    %ebp
 804c142:	c2 04 00             	ret    $0x4
 804c145:	90                   	nop

0804c146 <_ZNSt3tr15_BindIFNS_7_Mem_fnIM9MirrorImpFviEEES2_iEE6__callIIEILi0ELi1EEEENS_9result_ofIFS5_NS9_IFNS_3_MuIS2_Lb0ELb0EEES2_NS_5tupleIIDpT_EEEEE4typeENS9_IFNSA_IiLb0ELb0EEEiSF_EE4typeEEE4typeERKSF_NS_12_Index_tupleIIXspT0_EEEE>:
 804c146:	55                   	push   %ebp
 804c147:	89 e5                	mov    %esp,%ebp
 804c149:	53                   	push   %ebx
 804c14a:	83 ec 24             	sub    $0x24,%esp
 804c14d:	8b 45 08             	mov    0x8(%ebp),%eax
 804c150:	83 c0 08             	add    $0x8,%eax
 804c153:	89 04 24             	mov    %eax,(%esp)
 804c156:	e8 11 06 00 00       	call   804c76c <_ZNSt3tr13getILi1EI9MirrorImpiEEENS_9__add_refINS_13tuple_elementIXT_ENS_5tupleIIDpT0_EEEE4typeEE4typeERS7_>
 804c15b:	8b 55 0c             	mov    0xc(%ebp),%edx
 804c15e:	89 54 24 08          	mov    %edx,0x8(%esp)
 804c162:	89 44 24 04          	mov    %eax,0x4(%esp)
 804c166:	8d 45 f7             	lea    -0x9(%ebp),%eax
 804c169:	89 04 24             	mov    %eax,(%esp)
 804c16c:	e8 0f 06 00 00       	call   804c780 <_ZNVKSt3tr13_MuIiLb0ELb0EEclIiNS_5tupleIIEEEEERT_S6_RKT0_>
 804c171:	8b 18                	mov    (%eax),%ebx
 804c173:	8b 45 08             	mov    0x8(%ebp),%eax
 804c176:	83 c0 08             	add    $0x8,%eax
 804c179:	89 04 24             	mov    %eax,(%esp)
 804c17c:	e8 d0 05 00 00       	call   804c751 <_ZNSt3tr13getILi0EI9MirrorImpiEEENS_9__add_refINS_13tuple_elementIXT_ENS_5tupleIIDpT0_EEEE4typeEE4typeERS7_>
 804c181:	8b 55 0c             	mov    0xc(%ebp),%edx
 804c184:	89 54 24 08          	mov    %edx,0x8(%esp)
 804c188:	89 44 24 04          	mov    %eax,0x4(%esp)
 804c18c:	8d 45 f6             	lea    -0xa(%ebp),%eax
 804c18f:	89 04 24             	mov    %eax,(%esp)
 804c192:	e8 cd 05 00 00       	call   804c764 <_ZNVKSt3tr13_MuI9MirrorImpLb0ELb0EEclIS1_NS_5tupleIIEEEEERT_S7_RKT0_>
 804c197:	8b 55 08             	mov    0x8(%ebp),%edx
 804c19a:	89 5c 24 08          	mov    %ebx,0x8(%esp)
 804c19e:	89 44 24 04          	mov    %eax,0x4(%esp)
 804c1a2:	89 14 24             	mov    %edx,(%esp)
 804c1a5:	e8 de 05 00 00       	call   804c788 <_ZNKSt3tr17_Mem_fnIM9MirrorImpFviEEclERS1_i>
 804c1aa:	83 c4 24             	add    $0x24,%esp
 804c1ad:	5b                   	pop    %ebx
 804c1ae:	5d                   	pop    %ebp
 804c1af:	c3                   	ret    

0804c1b0 <_ZNSaIiEC1ERKS_>:
 804c1b0:	55                   	push   %ebp
 804c1b1:	89 e5                	mov    %esp,%ebp
 804c1b3:	83 ec 18             	sub    $0x18,%esp
 804c1b6:	8b 45 0c             	mov    0xc(%ebp),%eax
 804c1b9:	89 44 24 04          	mov    %eax,0x4(%esp)
 804c1bd:	8b 45 08             	mov    0x8(%ebp),%eax
 804c1c0:	89 04 24             	mov    %eax,(%esp)
 804c1c3:	e8 08 06 00 00       	call   804c7d0 <_ZN9__gnu_cxx13new_allocatorIiEC1ERKS1_>
 804c1c8:	c9                   	leave  
 804c1c9:	c3                   	ret    

0804c1ca <_ZN9__gnu_cxx13new_allocatorIiED1Ev>:
 804c1ca:	55                   	push   %ebp
 804c1cb:	89 e5                	mov    %esp,%ebp
 804c1cd:	5d                   	pop    %ebp
 804c1ce:	c3                   	ret    
 804c1cf:	90                   	nop

0804c1d0 <_ZN9__gnu_cxx13new_allocatorIiE8allocateEjPKv>:
 804c1d0:	55                   	push   %ebp
 804c1d1:	89 e5                	mov    %esp,%ebp
 804c1d3:	83 ec 18             	sub    $0x18,%esp
 804c1d6:	8b 45 08             	mov    0x8(%ebp),%eax
 804c1d9:	89 04 24             	mov    %eax,(%esp)
 804c1dc:	e8 f5 05 00 00       	call   804c7d6 <_ZNK9__gnu_cxx13new_allocatorIiE8max_sizeEv>
 804c1e1:	3b 45 0c             	cmp    0xc(%ebp),%eax
 804c1e4:	0f 92 c0             	setb   %al
 804c1e7:	84 c0                	test   %al,%al
 804c1e9:	74 05                	je     804c1f0 <_ZN9__gnu_cxx13new_allocatorIiE8allocateEjPKv+0x20>
 804c1eb:	e8 00 cd ff ff       	call   8048ef0 <_ZSt17__throw_bad_allocv@plt>
 804c1f0:	8b 45 0c             	mov    0xc(%ebp),%eax
 804c1f3:	c1 e0 02             	shl    $0x2,%eax
 804c1f6:	89 04 24             	mov    %eax,(%esp)
 804c1f9:	e8 b2 cc ff ff       	call   8048eb0 <_Znwj@plt>
 804c1fe:	c9                   	leave  
 804c1ff:	c3                   	ret    

0804c200 <_ZN9__gnu_cxx13new_allocatorIiE10deallocateEPij>:
 804c200:	55                   	push   %ebp
 804c201:	89 e5                	mov    %esp,%ebp
 804c203:	83 ec 18             	sub    $0x18,%esp
 804c206:	8b 45 0c             	mov    0xc(%ebp),%eax
 804c209:	89 04 24             	mov    %eax,(%esp)
 804c20c:	e8 9f cd ff ff       	call   8048fb0 <_ZdlPv@plt>
 804c211:	c9                   	leave  
 804c212:	c3                   	ret    

0804c213 <_ZNSt20__uninitialized_copyILb1EE13__uninit_copyIN9__gnu_cxx17__normal_iteratorIPKiSt6vectorIiSaIiEEEEPiEET0_T_SC_SB_>:
 804c213:	55                   	push   %ebp
 804c214:	89 e5                	mov    %esp,%ebp
 804c216:	83 ec 18             	sub    $0x18,%esp
 804c219:	8b 45 10             	mov    0x10(%ebp),%eax
 804c21c:	89 44 24 08          	mov    %eax,0x8(%esp)
 804c220:	8b 45 0c             	mov    0xc(%ebp),%eax
 804c223:	89 44 24 04          	mov    %eax,0x4(%esp)
 804c227:	8b 45 08             	mov    0x8(%ebp),%eax
 804c22a:	89 04 24             	mov    %eax,(%esp)
 804c22d:	e8 ae 05 00 00       	call   804c7e0 <_ZSt4copyIN9__gnu_cxx17__normal_iteratorIPKiSt6vectorIiSaIiEEEEPiET0_T_SA_S9_>
 804c232:	c9                   	leave  
 804c233:	c3                   	ret    

0804c234 <_ZNSt12_Destroy_auxILb1EE9__destroyIPiEEvT_S3_>:
 804c234:	55                   	push   %ebp
 804c235:	89 e5                	mov    %esp,%ebp
 804c237:	5d                   	pop    %ebp
 804c238:	c3                   	ret    
 804c239:	90                   	nop

0804c23a <_ZNSt3tr111_Tuple_implILi0EI9MirrorImpSt6vectorIiSaIiEEEEC1ERKS1_RKS4_>:
 804c23a:	55                   	push   %ebp
 804c23b:	89 e5                	mov    %esp,%ebp
 804c23d:	83 ec 18             	sub    $0x18,%esp
 804c240:	8b 45 08             	mov    0x8(%ebp),%eax
 804c243:	8b 55 10             	mov    0x10(%ebp),%edx
 804c246:	89 54 24 04          	mov    %edx,0x4(%esp)
 804c24a:	89 04 24             	mov    %eax,(%esp)
 804c24d:	e8 da 05 00 00       	call   804c82c <_ZNSt3tr111_Tuple_implILi1EISt6vectorIiSaIiEEEEC1ERKS3_>
 804c252:	c9                   	leave  
 804c253:	c3                   	ret    

0804c254 <_ZNKSt3tr111_Tuple_implILi1EISt6vectorIiSaIiEEEE7_M_tailEv>:
 804c254:	55                   	push   %ebp
 804c255:	89 e5                	mov    %esp,%ebp
 804c257:	8b 45 08             	mov    0x8(%ebp),%eax
 804c25a:	5d                   	pop    %ebp
 804c25b:	c3                   	ret    

0804c25c <_ZNKSt3tr19_Any_data9_M_accessIPNS_5_BindIFNS_7_Mem_fnIM9MirrorImpFvSt6vectorIiSaIiEEEEES4_S7_EEEEERKT_v>:
 804c25c:	55                   	push   %ebp
 804c25d:	89 e5                	mov    %esp,%ebp
 804c25f:	83 ec 18             	sub    $0x18,%esp
 804c262:	8b 45 08             	mov    0x8(%ebp),%eax
 804c265:	89 04 24             	mov    %eax,(%esp)
 804c268:	e8 5b d3 ff ff       	call   80495c8 <_ZNKSt3tr19_Any_data9_M_accessEv>
 804c26d:	c9                   	leave  
 804c26e:	c3                   	ret    
 804c26f:	90                   	nop

0804c270 <_ZNSt3tr15_BindIFNS_7_Mem_fnIM9MirrorImpFvSt6vectorIiSaIiEEEEES2_S5_EE6__callIIEILi0ELi1EEEENS_9result_ofIFS8_NSC_IFNS_3_MuIS2_Lb0ELb0EEES2_NS_5tupleIIDpT_EEEEE4typeENSC_IFNSD_IS5_Lb0ELb0EEES5_SI_EE4typeEEE4typeERKSI_NS_12_Index_tupleIIXspT0_EEEE>:
 804c270:	55                   	push   %ebp
 804c271:	89 e5                	mov    %esp,%ebp
 804c273:	53                   	push   %ebx
 804c274:	83 ec 24             	sub    $0x24,%esp
 804c277:	8b 45 08             	mov    0x8(%ebp),%eax
 804c27a:	83 c0 08             	add    $0x8,%eax
 804c27d:	89 04 24             	mov    %eax,(%esp)
 804c280:	e8 df 05 00 00       	call   804c864 <_ZNSt3tr13getILi1EI9MirrorImpSt6vectorIiSaIiEEEEENS_9__add_refINS_13tuple_elementIXT_ENS_5tupleIIDpT0_EEEE4typeEE4typeERSA_>
 804c285:	8b 55 0c             	mov    0xc(%ebp),%edx
 804c288:	89 54 24 08          	mov    %edx,0x8(%esp)
 804c28c:	89 44 24 04          	mov    %eax,0x4(%esp)
 804c290:	8d 45 f7             	lea    -0x9(%ebp),%eax
 804c293:	89 04 24             	mov    %eax,(%esp)
 804c296:	e8 dd 05 00 00       	call   804c878 <_ZNVKSt3tr13_MuISt6vectorIiSaIiEELb0ELb0EEclIS3_NS_5tupleIIEEEEERT_S9_RKT0_>
 804c29b:	89 44 24 04          	mov    %eax,0x4(%esp)
 804c29f:	8d 45 e8             	lea    -0x18(%ebp),%eax
 804c2a2:	89 04 24             	mov    %eax,(%esp)
 804c2a5:	e8 f0 e0 ff ff       	call   804a39a <_ZNSt6vectorIiSaIiEEC1ERKS1_>
 804c2aa:	8b 45 08             	mov    0x8(%ebp),%eax
 804c2ad:	83 c0 08             	add    $0x8,%eax
 804c2b0:	89 04 24             	mov    %eax,(%esp)
 804c2b3:	e8 99 05 00 00       	call   804c851 <_ZNSt3tr13getILi0EI9MirrorImpSt6vectorIiSaIiEEEEENS_9__add_refINS_13tuple_elementIXT_ENS_5tupleIIDpT0_EEEE4typeEE4typeERSA_>
 804c2b8:	8b 55 0c             	mov    0xc(%ebp),%edx
 804c2bb:	89 54 24 08          	mov    %edx,0x8(%esp)
 804c2bf:	89 44 24 04          	mov    %eax,0x4(%esp)
 804c2c3:	8d 45 f6             	lea    -0xa(%ebp),%eax
 804c2c6:	89 04 24             	mov    %eax,(%esp)
 804c2c9:	e8 96 04 00 00       	call   804c764 <_ZNVKSt3tr13_MuI9MirrorImpLb0ELb0EEclIS1_NS_5tupleIIEEEEERT_S7_RKT0_>
 804c2ce:	8b 55 08             	mov    0x8(%ebp),%edx
 804c2d1:	8d 4d e8             	lea    -0x18(%ebp),%ecx
 804c2d4:	89 4c 24 08          	mov    %ecx,0x8(%esp)
 804c2d8:	89 44 24 04          	mov    %eax,0x4(%esp)
 804c2dc:	89 14 24             	mov    %edx,(%esp)
 804c2df:	e8 9c 05 00 00       	call   804c880 <_ZNKSt3tr17_Mem_fnIM9MirrorImpFvSt6vectorIiSaIiEEEEclERS1_S4_>
 804c2e4:	8d 45 e8             	lea    -0x18(%ebp),%eax
 804c2e7:	89 04 24             	mov    %eax,(%esp)
 804c2ea:	e8 5b e1 ff ff       	call   804a44a <_ZNSt6vectorIiSaIiEED1Ev>
 804c2ef:	83 c4 24             	add    $0x24,%esp
 804c2f2:	5b                   	pop    %ebx
 804c2f3:	5d                   	pop    %ebp
 804c2f4:	c3                   	ret    
 804c2f5:	89 c3                	mov    %eax,%ebx
 804c2f7:	8d 45 e8             	lea    -0x18(%ebp),%eax
 804c2fa:	89 04 24             	mov    %eax,(%esp)
 804c2fd:	e8 48 e1 ff ff       	call   804a44a <_ZNSt6vectorIiSaIiEED1Ev>
 804c302:	89 d8                	mov    %ebx,%eax
 804c304:	89 04 24             	mov    %eax,(%esp)
 804c307:	e8 04 ce ff ff       	call   8049110 <_Unwind_Resume@plt>

0804c30c <_ZNSaIiEC1Ev>:
 804c30c:	55                   	push   %ebp
 804c30d:	89 e5                	mov    %esp,%ebp
 804c30f:	83 ec 18             	sub    $0x18,%esp
 804c312:	8b 45 08             	mov    0x8(%ebp),%eax
 804c315:	89 04 24             	mov    %eax,(%esp)
 804c318:	e8 e5 05 00 00       	call   804c902 <_ZN9__gnu_cxx13new_allocatorIiEC1Ev>
 804c31d:	c9                   	leave  
 804c31e:	c3                   	ret    

0804c31f <_ZSt12__miter_baseIPiENSt11_Miter_baseIT_E13iterator_typeES2_>:
 804c31f:	55                   	push   %ebp
 804c320:	89 e5                	mov    %esp,%ebp
 804c322:	83 ec 18             	sub    $0x18,%esp
 804c325:	8b 45 08             	mov    0x8(%ebp),%eax
 804c328:	89 04 24             	mov    %eax,(%esp)
 804c32b:	e8 d7 05 00 00       	call   804c907 <_ZNSt10_Iter_baseIPiLb0EE7_S_baseES0_>
 804c330:	c9                   	leave  
 804c331:	c3                   	ret    

0804c332 <_ZSt23__copy_move_backward_a2ILb0EPiS0_ET1_T0_S2_S1_>:
 804c332:	55                   	push   %ebp
 804c333:	89 e5                	mov    %esp,%ebp
 804c335:	56                   	push   %esi
 804c336:	53                   	push   %ebx
 804c337:	83 ec 10             	sub    $0x10,%esp
 804c33a:	8b 45 10             	mov    0x10(%ebp),%eax
 804c33d:	89 04 24             	mov    %eax,(%esp)
 804c340:	e8 ca 05 00 00       	call   804c90f <_ZSt12__niter_baseIPiENSt11_Niter_baseIT_E13iterator_typeES2_>
 804c345:	89 c6                	mov    %eax,%esi
 804c347:	8b 45 0c             	mov    0xc(%ebp),%eax
 804c34a:	89 04 24             	mov    %eax,(%esp)
 804c34d:	e8 bd 05 00 00       	call   804c90f <_ZSt12__niter_baseIPiENSt11_Niter_baseIT_E13iterator_typeES2_>
 804c352:	89 c3                	mov    %eax,%ebx
 804c354:	8b 45 08             	mov    0x8(%ebp),%eax
 804c357:	89 04 24             	mov    %eax,(%esp)
 804c35a:	e8 b0 05 00 00       	call   804c90f <_ZSt12__niter_baseIPiENSt11_Niter_baseIT_E13iterator_typeES2_>
 804c35f:	89 74 24 08          	mov    %esi,0x8(%esp)
 804c363:	89 5c 24 04          	mov    %ebx,0x4(%esp)
 804c367:	89 04 24             	mov    %eax,(%esp)
 804c36a:	e8 b3 05 00 00       	call   804c922 <_ZSt22__copy_move_backward_aILb0EPiS0_ET1_T0_S2_S1_>
 804c36f:	83 c4 10             	add    $0x10,%esp
 804c372:	5b                   	pop    %ebx
 804c373:	5e                   	pop    %esi
 804c374:	5d                   	pop    %ebp
 804c375:	c3                   	ret    

0804c376 <_ZNKSt6vectorIiSaIiEE8max_sizeEv>:
 804c376:	55                   	push   %ebp
 804c377:	89 e5                	mov    %esp,%ebp
 804c379:	83 ec 18             	sub    $0x18,%esp
 804c37c:	8b 45 08             	mov    0x8(%ebp),%eax
 804c37f:	89 04 24             	mov    %eax,(%esp)
 804c382:	e8 25 e8 ff ff       	call   804abac <_ZNKSt12_Vector_baseIiSaIiEE19_M_get_Tp_allocatorEv>
 804c387:	89 04 24             	mov    %eax,(%esp)
 804c38a:	e8 47 04 00 00       	call   804c7d6 <_ZNK9__gnu_cxx13new_allocatorIiE8max_sizeEv>
 804c38f:	c9                   	leave  
 804c390:	c3                   	ret    

0804c391 <_ZSt22__uninitialized_copy_aIPiS0_iET0_T_S2_S1_RSaIT1_E>:
 804c391:	55                   	push   %ebp
 804c392:	89 e5                	mov    %esp,%ebp
 804c394:	83 ec 18             	sub    $0x18,%esp
 804c397:	8b 45 10             	mov    0x10(%ebp),%eax
 804c39a:	89 44 24 08          	mov    %eax,0x8(%esp)
 804c39e:	8b 45 0c             	mov    0xc(%ebp),%eax
 804c3a1:	89 44 24 04          	mov    %eax,0x4(%esp)
 804c3a5:	8b 45 08             	mov    0x8(%ebp),%eax
 804c3a8:	89 04 24             	mov    %eax,(%esp)
 804c3ab:	e8 97 05 00 00       	call   804c947 <_ZSt18uninitialized_copyIPiS0_ET0_T_S2_S1_>
 804c3b0:	c9                   	leave  
 804c3b1:	c3                   	ret    

0804c3b2 <_ZN9__gnu_cxx13new_allocatorINSt3tr18functionIFvvEEEEC1Ev>:
 804c3b2:	55                   	push   %ebp
 804c3b3:	89 e5                	mov    %esp,%ebp
 804c3b5:	5d                   	pop    %ebp
 804c3b6:	c3                   	ret    
 804c3b7:	90                   	nop

0804c3b8 <_ZN9__gnu_cxx13new_allocatorIPNSt3tr18functionIFvvEEEE8allocateEjPKv>:
 804c3b8:	55                   	push   %ebp
 804c3b9:	89 e5                	mov    %esp,%ebp
 804c3bb:	83 ec 18             	sub    $0x18,%esp
 804c3be:	8b 45 08             	mov    0x8(%ebp),%eax
 804c3c1:	89 04 24             	mov    %eax,(%esp)
 804c3c4:	e8 9f 05 00 00       	call   804c968 <_ZNK9__gnu_cxx13new_allocatorIPNSt3tr18functionIFvvEEEE8max_sizeEv>
 804c3c9:	3b 45 0c             	cmp    0xc(%ebp),%eax
 804c3cc:	0f 92 c0             	setb   %al
 804c3cf:	84 c0                	test   %al,%al
 804c3d1:	74 05                	je     804c3d8 <_ZN9__gnu_cxx13new_allocatorIPNSt3tr18functionIFvvEEEE8allocateEjPKv+0x20>
 804c3d3:	e8 18 cb ff ff       	call   8048ef0 <_ZSt17__throw_bad_allocv@plt>
 804c3d8:	8b 45 0c             	mov    0xc(%ebp),%eax
 804c3db:	c1 e0 02             	shl    $0x2,%eax
 804c3de:	89 04 24             	mov    %eax,(%esp)
 804c3e1:	e8 ca ca ff ff       	call   8048eb0 <_Znwj@plt>
 804c3e6:	c9                   	leave  
 804c3e7:	c3                   	ret    

0804c3e8 <_ZNSt15_Deque_iteratorINSt3tr18functionIFvvEEERS3_PS3_E14_S_buffer_sizeEv>:
 804c3e8:	55                   	push   %ebp
 804c3e9:	89 e5                	mov    %esp,%ebp
 804c3eb:	83 ec 18             	sub    $0x18,%esp
 804c3ee:	c7 04 24 10 00 00 00 	movl   $0x10,(%esp)
 804c3f5:	e8 a3 d1 ff ff       	call   804959d <_ZSt16__deque_buf_sizej>
 804c3fa:	c9                   	leave  
 804c3fb:	c3                   	ret    

0804c3fc <_ZN9__gnu_cxx13new_allocatorINSt3tr18functionIFvvEEEE10deallocateEPS4_j>:
 804c3fc:	55                   	push   %ebp
 804c3fd:	89 e5                	mov    %esp,%ebp
 804c3ff:	83 ec 18             	sub    $0x18,%esp
 804c402:	8b 45 0c             	mov    0xc(%ebp),%eax
 804c405:	89 04 24             	mov    %eax,(%esp)
 804c408:	e8 a3 cb ff ff       	call   8048fb0 <_ZdlPv@plt>
 804c40d:	c9                   	leave  
 804c40e:	c3                   	ret    
 804c40f:	90                   	nop

0804c410 <_ZNSaIPNSt3tr18functionIFvvEEEEC1IS2_EERKSaIT_E>:
 804c410:	55                   	push   %ebp
 804c411:	89 e5                	mov    %esp,%ebp
 804c413:	83 ec 18             	sub    $0x18,%esp
 804c416:	8b 45 08             	mov    0x8(%ebp),%eax
 804c419:	89 04 24             	mov    %eax,(%esp)
 804c41c:	e8 51 05 00 00       	call   804c972 <_ZN9__gnu_cxx13new_allocatorIPNSt3tr18functionIFvvEEEEC1Ev>
 804c421:	c9                   	leave  
 804c422:	c3                   	ret    
 804c423:	90                   	nop

0804c424 <_ZN9__gnu_cxx13new_allocatorIPNSt3tr18functionIFvvEEEED1Ev>:
 804c424:	55                   	push   %ebp
 804c425:	89 e5                	mov    %esp,%ebp
 804c427:	5d                   	pop    %ebp
 804c428:	c3                   	ret    

0804c429 <_ZSt8_DestroyIPNSt3tr18functionIFvvEEEEvT_S5_>:
 804c429:	55                   	push   %ebp
 804c42a:	89 e5                	mov    %esp,%ebp
 804c42c:	83 ec 18             	sub    $0x18,%esp
 804c42f:	8b 45 0c             	mov    0xc(%ebp),%eax
 804c432:	89 44 24 04          	mov    %eax,0x4(%esp)
 804c436:	8b 45 08             	mov    0x8(%ebp),%eax
 804c439:	89 04 24             	mov    %eax,(%esp)
 804c43c:	e8 36 05 00 00       	call   804c977 <_ZNSt12_Destroy_auxILb0EE9__destroyIPNSt3tr18functionIFvvEEEEEvT_S7_>
 804c441:	c9                   	leave  
 804c442:	c3                   	ret    
 804c443:	90                   	nop

0804c444 <_ZNSaINSt3tr18functionIFvvEEEEC1ERKS3_>:
 804c444:	55                   	push   %ebp
 804c445:	89 e5                	mov    %esp,%ebp
 804c447:	83 ec 18             	sub    $0x18,%esp
 804c44a:	8b 45 0c             	mov    0xc(%ebp),%eax
 804c44d:	89 44 24 04          	mov    %eax,0x4(%esp)
 804c451:	8b 45 08             	mov    0x8(%ebp),%eax
 804c454:	89 04 24             	mov    %eax,(%esp)
 804c457:	e8 4a 05 00 00       	call   804c9a6 <_ZN9__gnu_cxx13new_allocatorINSt3tr18functionIFvvEEEEC1ERKS5_>
 804c45c:	c9                   	leave  
 804c45d:	c3                   	ret    

0804c45e <_ZNSt20__uninitialized_copyILb0EE13__uninit_copyISt15_Deque_iteratorINSt3tr18functionIFvvEEERKS6_PS7_ES2_IS6_RS6_PS6_EEET0_T_SF_SE_>:
 804c45e:	55                   	push   %ebp
 804c45f:	89 e5                	mov    %esp,%ebp
 804c461:	53                   	push   %ebx
 804c462:	83 ec 34             	sub    $0x34,%esp
 804c465:	8b 45 2c             	mov    0x2c(%ebp),%eax
 804c468:	89 44 24 04          	mov    %eax,0x4(%esp)
 804c46c:	8b 45 08             	mov    0x8(%ebp),%eax
 804c46f:	89 04 24             	mov    %eax,(%esp)
 804c472:	e8 09 e3 ff ff       	call   804a780 <_ZNSt15_Deque_iteratorINSt3tr18functionIFvvEEERS3_PS3_EC1ERKS6_>
 804c477:	eb 42                	jmp    804c4bb <_ZNSt20__uninitialized_copyILb0EE13__uninit_copyISt15_Deque_iteratorINSt3tr18functionIFvvEEERKS6_PS7_ES2_IS6_RS6_PS6_EEET0_T_SF_SE_+0x5d>
 804c479:	8d 45 0c             	lea    0xc(%ebp),%eax
 804c47c:	89 04 24             	mov    %eax,(%esp)
 804c47f:	e8 e0 05 00 00       	call   804ca64 <_ZNKSt15_Deque_iteratorINSt3tr18functionIFvvEEERKS3_PS4_EdeEv>
 804c484:	89 c3                	mov    %eax,%ebx
 804c486:	8b 45 08             	mov    0x8(%ebp),%eax
 804c489:	89 04 24             	mov    %eax,(%esp)
 804c48c:	e8 37 f1 ff ff       	call   804b5c8 <_ZNKSt15_Deque_iteratorINSt3tr18functionIFvvEEERS3_PS3_EdeEv>
 804c491:	89 04 24             	mov    %eax,(%esp)
 804c494:	e8 c3 05 00 00       	call   804ca5c <_ZSt11__addressofINSt3tr18functionIFvvEEEEPT_RS4_>
 804c499:	89 5c 24 04          	mov    %ebx,0x4(%esp)
 804c49d:	89 04 24             	mov    %eax,(%esp)
 804c4a0:	e8 c9 05 00 00       	call   804ca6e <_ZSt10_ConstructINSt3tr18functionIFvvEEES3_EvPT_RKT0_>
 804c4a5:	8d 45 0c             	lea    0xc(%ebp),%eax
 804c4a8:	89 04 24             	mov    %eax,(%esp)
 804c4ab:	e8 62 05 00 00       	call   804ca12 <_ZNSt15_Deque_iteratorINSt3tr18functionIFvvEEERKS3_PS4_EppEv>
 804c4b0:	8b 45 08             	mov    0x8(%ebp),%eax
 804c4b3:	89 04 24             	mov    %eax,(%esp)
 804c4b6:	e8 0d 05 00 00       	call   804c9c8 <_ZNSt15_Deque_iteratorINSt3tr18functionIFvvEEERS3_PS3_EppEv>
 804c4bb:	8d 45 1c             	lea    0x1c(%ebp),%eax
 804c4be:	89 44 24 04          	mov    %eax,0x4(%esp)
 804c4c2:	8d 45 0c             	lea    0xc(%ebp),%eax
 804c4c5:	89 04 24             	mov    %eax,(%esp)
 804c4c8:	e8 de 04 00 00       	call   804c9ab <_ZStneINSt3tr18functionIFvvEEERKS3_PS4_EbRKSt15_Deque_iteratorIT_T0_T1_ESD_>
 804c4cd:	84 c0                	test   %al,%al
 804c4cf:	75 a8                	jne    804c479 <_ZNSt20__uninitialized_copyILb0EE13__uninit_copyISt15_Deque_iteratorINSt3tr18functionIFvvEEERKS6_PS7_ES2_IS6_RS6_PS6_EEET0_T_SF_SE_+0x1b>
 804c4d1:	eb 54                	jmp    804c527 <_ZNSt20__uninitialized_copyILb0EE13__uninit_copyISt15_Deque_iteratorINSt3tr18functionIFvvEEERKS6_PS7_ES2_IS6_RS6_PS6_EEET0_T_SF_SE_+0xc9>
 804c4d3:	89 c3                	mov    %eax,%ebx
 804c4d5:	e8 d6 cb ff ff       	call   80490b0 <__cxa_end_catch@plt>
 804c4da:	89 d8                	mov    %ebx,%eax
 804c4dc:	89 04 24             	mov    %eax,(%esp)
 804c4df:	e8 2c cc ff ff       	call   8049110 <_Unwind_Resume@plt>
 804c4e4:	89 04 24             	mov    %eax,(%esp)
 804c4e7:	e8 14 ca ff ff       	call   8048f00 <__cxa_begin_catch@plt>
 804c4ec:	8b 45 08             	mov    0x8(%ebp),%eax
 804c4ef:	89 44 24 04          	mov    %eax,0x4(%esp)
 804c4f3:	8d 45 e8             	lea    -0x18(%ebp),%eax
 804c4f6:	89 04 24             	mov    %eax,(%esp)
 804c4f9:	e8 82 e2 ff ff       	call   804a780 <_ZNSt15_Deque_iteratorINSt3tr18functionIFvvEEERS3_PS3_EC1ERKS6_>
 804c4fe:	8b 45 2c             	mov    0x2c(%ebp),%eax
 804c501:	89 44 24 04          	mov    %eax,0x4(%esp)
 804c505:	8d 45 d8             	lea    -0x28(%ebp),%eax
 804c508:	89 04 24             	mov    %eax,(%esp)
 804c50b:	e8 70 e2 ff ff       	call   804a780 <_ZNSt15_Deque_iteratorINSt3tr18functionIFvvEEERS3_PS3_EC1ERKS6_>
 804c510:	8d 45 e8             	lea    -0x18(%ebp),%eax
 804c513:	89 44 24 04          	mov    %eax,0x4(%esp)
 804c517:	8d 45 d8             	lea    -0x28(%ebp),%eax
 804c51a:	89 04 24             	mov    %eax,(%esp)
 804c51d:	e8 9f 05 00 00       	call   804cac1 <_ZSt8_DestroyISt15_Deque_iteratorINSt3tr18functionIFvvEEERS4_PS4_EEvT_S8_>
 804c522:	e8 59 cb ff ff       	call   8049080 <__cxa_rethrow@plt>
 804c527:	8b 45 08             	mov    0x8(%ebp),%eax
 804c52a:	83 c4 34             	add    $0x34,%esp
 804c52d:	5b                   	pop    %ebx
 804c52e:	5d                   	pop    %ebp
 804c52f:	c2 04 00             	ret    $0x4

0804c532 <_ZNSt5dequeINSt3tr18functionIFvvEEESaIS3_EE17_M_reallocate_mapEjb>:
 804c532:	55                   	push   %ebp
 804c533:	89 e5                	mov    %esp,%ebp
 804c535:	53                   	push   %ebx
 804c536:	83 ec 44             	sub    $0x44,%esp
 804c539:	8b 45 10             	mov    0x10(%ebp),%eax
 804c53c:	88 45 d4             	mov    %al,-0x2c(%ebp)
 804c53f:	8b 45 08             	mov    0x8(%ebp),%eax
 804c542:	8b 40 24             	mov    0x24(%eax),%eax
 804c545:	89 c2                	mov    %eax,%edx
 804c547:	8b 45 08             	mov    0x8(%ebp),%eax
 804c54a:	8b 40 14             	mov    0x14(%eax),%eax
 804c54d:	89 d1                	mov    %edx,%ecx
 804c54f:	29 c1                	sub    %eax,%ecx
 804c551:	89 c8                	mov    %ecx,%eax
 804c553:	c1 f8 02             	sar    $0x2,%eax
 804c556:	83 c0 01             	add    $0x1,%eax
 804c559:	89 45 e8             	mov    %eax,-0x18(%ebp)
 804c55c:	8b 45 0c             	mov    0xc(%ebp),%eax
 804c55f:	03 45 e8             	add    -0x18(%ebp),%eax
 804c562:	89 45 ec             	mov    %eax,-0x14(%ebp)
 804c565:	8b 45 08             	mov    0x8(%ebp),%eax
 804c568:	8b 40 04             	mov    0x4(%eax),%eax
 804c56b:	8b 55 ec             	mov    -0x14(%ebp),%edx
 804c56e:	01 d2                	add    %edx,%edx
 804c570:	39 d0                	cmp    %edx,%eax
 804c572:	0f 86 92 00 00 00    	jbe    804c60a <_ZNSt5dequeINSt3tr18functionIFvvEEESaIS3_EE17_M_reallocate_mapEjb+0xd8>
 804c578:	8b 45 08             	mov    0x8(%ebp),%eax
 804c57b:	8b 10                	mov    (%eax),%edx
 804c57d:	8b 45 08             	mov    0x8(%ebp),%eax
 804c580:	8b 40 04             	mov    0x4(%eax),%eax
 804c583:	2b 45 ec             	sub    -0x14(%ebp),%eax
 804c586:	d1 e8                	shr    %eax
 804c588:	8d 0c 85 00 00 00 00 	lea    0x0(,%eax,4),%ecx
 804c58f:	80 7d d4 00          	cmpb   $0x0,-0x2c(%ebp)
 804c593:	74 08                	je     804c59d <_ZNSt5dequeINSt3tr18functionIFvvEEESaIS3_EE17_M_reallocate_mapEjb+0x6b>
 804c595:	8b 45 0c             	mov    0xc(%ebp),%eax
 804c598:	c1 e0 02             	shl    $0x2,%eax
 804c59b:	eb 05                	jmp    804c5a2 <_ZNSt5dequeINSt3tr18functionIFvvEEESaIS3_EE17_M_reallocate_mapEjb+0x70>
 804c59d:	b8 00 00 00 00       	mov    $0x0,%eax
 804c5a2:	01 c8                	add    %ecx,%eax
 804c5a4:	01 d0                	add    %edx,%eax
 804c5a6:	89 45 e4             	mov    %eax,-0x1c(%ebp)
 804c5a9:	8b 45 08             	mov    0x8(%ebp),%eax
 804c5ac:	8b 40 14             	mov    0x14(%eax),%eax
 804c5af:	3b 45 e4             	cmp    -0x1c(%ebp),%eax
 804c5b2:	76 27                	jbe    804c5db <_ZNSt5dequeINSt3tr18functionIFvvEEESaIS3_EE17_M_reallocate_mapEjb+0xa9>
 804c5b4:	8b 45 08             	mov    0x8(%ebp),%eax
 804c5b7:	8b 40 24             	mov    0x24(%eax),%eax
 804c5ba:	8d 48 04             	lea    0x4(%eax),%ecx
 804c5bd:	8b 45 08             	mov    0x8(%ebp),%eax
 804c5c0:	8b 40 14             	mov    0x14(%eax),%eax
 804c5c3:	8b 55 e4             	mov    -0x1c(%ebp),%edx
 804c5c6:	89 54 24 08          	mov    %edx,0x8(%esp)
 804c5ca:	89 4c 24 04          	mov    %ecx,0x4(%esp)
 804c5ce:	89 04 24             	mov    %eax,(%esp)
 804c5d1:	e8 29 05 00 00       	call   804caff <_ZSt4copyIPPNSt3tr18functionIFvvEEES5_ET0_T_S7_S6_>
 804c5d6:	e9 ea 00 00 00       	jmp    804c6c5 <_ZNSt5dequeINSt3tr18functionIFvvEEESaIS3_EE17_M_reallocate_mapEjb+0x193>
 804c5db:	8b 45 e8             	mov    -0x18(%ebp),%eax
 804c5de:	c1 e0 02             	shl    $0x2,%eax
 804c5e1:	89 c2                	mov    %eax,%edx
 804c5e3:	03 55 e4             	add    -0x1c(%ebp),%edx
 804c5e6:	8b 45 08             	mov    0x8(%ebp),%eax
 804c5e9:	8b 40 24             	mov    0x24(%eax),%eax
 804c5ec:	8d 48 04             	lea    0x4(%eax),%ecx
 804c5ef:	8b 45 08             	mov    0x8(%ebp),%eax
 804c5f2:	8b 40 14             	mov    0x14(%eax),%eax
 804c5f5:	89 54 24 08          	mov    %edx,0x8(%esp)
 804c5f9:	89 4c 24 04          	mov    %ecx,0x4(%esp)
 804c5fd:	89 04 24             	mov    %eax,(%esp)
 804c600:	e8 32 05 00 00       	call   804cb37 <_ZSt13copy_backwardIPPNSt3tr18functionIFvvEEES5_ET0_T_S7_S6_>
 804c605:	e9 bb 00 00 00       	jmp    804c6c5 <_ZNSt5dequeINSt3tr18functionIFvvEEESaIS3_EE17_M_reallocate_mapEjb+0x193>
 804c60a:	8b 45 08             	mov    0x8(%ebp),%eax
 804c60d:	8b 58 04             	mov    0x4(%eax),%ebx
 804c610:	8b 45 08             	mov    0x8(%ebp),%eax
 804c613:	8d 50 04             	lea    0x4(%eax),%edx
 804c616:	8d 45 0c             	lea    0xc(%ebp),%eax
 804c619:	89 44 24 04          	mov    %eax,0x4(%esp)
 804c61d:	89 14 24             	mov    %edx,(%esp)
 804c620:	e8 44 f7 ff ff       	call   804bd69 <_ZSt3maxIjERKT_S2_S2_>
 804c625:	8b 00                	mov    (%eax),%eax
 804c627:	01 d8                	add    %ebx,%eax
 804c629:	83 c0 02             	add    $0x2,%eax
 804c62c:	89 45 f0             	mov    %eax,-0x10(%ebp)
 804c62f:	8b 45 08             	mov    0x8(%ebp),%eax
 804c632:	8b 55 f0             	mov    -0x10(%ebp),%edx
 804c635:	89 54 24 04          	mov    %edx,0x4(%esp)
 804c639:	89 04 24             	mov    %eax,(%esp)
 804c63c:	e8 43 f7 ff ff       	call   804bd84 <_ZNSt11_Deque_baseINSt3tr18functionIFvvEEESaIS3_EE15_M_allocate_mapEj>
 804c641:	89 45 f4             	mov    %eax,-0xc(%ebp)
 804c644:	8b 45 ec             	mov    -0x14(%ebp),%eax
 804c647:	8b 55 f0             	mov    -0x10(%ebp),%edx
 804c64a:	89 d1                	mov    %edx,%ecx
 804c64c:	29 c1                	sub    %eax,%ecx
 804c64e:	89 c8                	mov    %ecx,%eax
 804c650:	d1 e8                	shr    %eax
 804c652:	8d 14 85 00 00 00 00 	lea    0x0(,%eax,4),%edx
 804c659:	80 7d d4 00          	cmpb   $0x0,-0x2c(%ebp)
 804c65d:	74 08                	je     804c667 <_ZNSt5dequeINSt3tr18functionIFvvEEESaIS3_EE17_M_reallocate_mapEjb+0x135>
 804c65f:	8b 45 0c             	mov    0xc(%ebp),%eax
 804c662:	c1 e0 02             	shl    $0x2,%eax
 804c665:	eb 05                	jmp    804c66c <_ZNSt5dequeINSt3tr18functionIFvvEEESaIS3_EE17_M_reallocate_mapEjb+0x13a>
 804c667:	b8 00 00 00 00       	mov    $0x0,%eax
 804c66c:	01 d0                	add    %edx,%eax
 804c66e:	03 45 f4             	add    -0xc(%ebp),%eax
 804c671:	89 45 e4             	mov    %eax,-0x1c(%ebp)
 804c674:	8b 45 08             	mov    0x8(%ebp),%eax
 804c677:	8b 40 24             	mov    0x24(%eax),%eax
 804c67a:	8d 48 04             	lea    0x4(%eax),%ecx
 804c67d:	8b 45 08             	mov    0x8(%ebp),%eax
 804c680:	8b 40 14             	mov    0x14(%eax),%eax
 804c683:	8b 55 e4             	mov    -0x1c(%ebp),%edx
 804c686:	89 54 24 08          	mov    %edx,0x8(%esp)
 804c68a:	89 4c 24 04          	mov    %ecx,0x4(%esp)
 804c68e:	89 04 24             	mov    %eax,(%esp)
 804c691:	e8 69 04 00 00       	call   804caff <_ZSt4copyIPPNSt3tr18functionIFvvEEES5_ET0_T_S7_S6_>
 804c696:	8b 45 08             	mov    0x8(%ebp),%eax
 804c699:	8b 48 04             	mov    0x4(%eax),%ecx
 804c69c:	8b 45 08             	mov    0x8(%ebp),%eax
 804c69f:	8b 10                	mov    (%eax),%edx
 804c6a1:	8b 45 08             	mov    0x8(%ebp),%eax
 804c6a4:	89 4c 24 08          	mov    %ecx,0x8(%esp)
 804c6a8:	89 54 24 04          	mov    %edx,0x4(%esp)
 804c6ac:	89 04 24             	mov    %eax,(%esp)
 804c6af:	e8 b6 ec ff ff       	call   804b36a <_ZNSt11_Deque_baseINSt3tr18functionIFvvEEESaIS3_EE17_M_deallocate_mapEPPS3_j>
 804c6b4:	8b 45 08             	mov    0x8(%ebp),%eax
 804c6b7:	8b 55 f4             	mov    -0xc(%ebp),%edx
 804c6ba:	89 10                	mov    %edx,(%eax)
 804c6bc:	8b 45 08             	mov    0x8(%ebp),%eax
 804c6bf:	8b 55 f0             	mov    -0x10(%ebp),%edx
 804c6c2:	89 50 04             	mov    %edx,0x4(%eax)
 804c6c5:	8b 45 08             	mov    0x8(%ebp),%eax
 804c6c8:	8d 50 08             	lea    0x8(%eax),%edx
 804c6cb:	8b 45 e4             	mov    -0x1c(%ebp),%eax
 804c6ce:	89 44 24 04          	mov    %eax,0x4(%esp)
 804c6d2:	89 14 24             	mov    %edx,(%esp)
 804c6d5:	e8 7e f7 ff ff       	call   804be58 <_ZNSt15_Deque_iteratorINSt3tr18functionIFvvEEERS3_PS3_E11_M_set_nodeEPS5_>
 804c6da:	8b 45 e8             	mov    -0x18(%ebp),%eax
 804c6dd:	83 e8 01             	sub    $0x1,%eax
 804c6e0:	c1 e0 02             	shl    $0x2,%eax
 804c6e3:	03 45 e4             	add    -0x1c(%ebp),%eax
 804c6e6:	8b 55 08             	mov    0x8(%ebp),%edx
 804c6e9:	83 c2 18             	add    $0x18,%edx
 804c6ec:	89 44 24 04          	mov    %eax,0x4(%esp)
 804c6f0:	89 14 24             	mov    %edx,(%esp)
 804c6f3:	e8 60 f7 ff ff       	call   804be58 <_ZNSt15_Deque_iteratorINSt3tr18functionIFvvEEERS3_PS3_E11_M_set_nodeEPS5_>
 804c6f8:	83 c4 44             	add    $0x44,%esp
 804c6fb:	5b                   	pop    %ebx
 804c6fc:	5d                   	pop    %ebp
 804c6fd:	c3                   	ret    

0804c6fe <_ZN9__gnu_cxx13new_allocatorINSt3tr18functionIFvvEEEE8allocateEjPKv>:
 804c6fe:	55                   	push   %ebp
 804c6ff:	89 e5                	mov    %esp,%ebp
 804c701:	83 ec 18             	sub    $0x18,%esp
 804c704:	8b 45 08             	mov    0x8(%ebp),%eax
 804c707:	89 04 24             	mov    %eax,(%esp)
 804c70a:	e8 61 04 00 00       	call   804cb70 <_ZNK9__gnu_cxx13new_allocatorINSt3tr18functionIFvvEEEE8max_sizeEv>
 804c70f:	3b 45 0c             	cmp    0xc(%ebp),%eax
 804c712:	0f 92 c0             	setb   %al
 804c715:	84 c0                	test   %al,%al
 804c717:	74 05                	je     804c71e <_ZN9__gnu_cxx13new_allocatorINSt3tr18functionIFvvEEEE8allocateEjPKv+0x20>
 804c719:	e8 d2 c7 ff ff       	call   8048ef0 <_ZSt17__throw_bad_allocv@plt>
 804c71e:	8b 45 0c             	mov    0xc(%ebp),%eax
 804c721:	c1 e0 04             	shl    $0x4,%eax
 804c724:	89 04 24             	mov    %eax,(%esp)
 804c727:	e8 84 c7 ff ff       	call   8048eb0 <_Znwj@plt>
 804c72c:	c9                   	leave  
 804c72d:	c3                   	ret    

0804c72e <_ZNSt3tr111_Tuple_implILi2EIEEC1Ev>:
 804c72e:	55                   	push   %ebp
 804c72f:	89 e5                	mov    %esp,%ebp
 804c731:	5d                   	pop    %ebp
 804c732:	c3                   	ret    
 804c733:	90                   	nop

0804c734 <_ZNSt3tr111_Tuple_implILi1EIiEEC1ERKi>:
 804c734:	55                   	push   %ebp
 804c735:	89 e5                	mov    %esp,%ebp
 804c737:	83 ec 18             	sub    $0x18,%esp
 804c73a:	8b 45 08             	mov    0x8(%ebp),%eax
 804c73d:	89 04 24             	mov    %eax,(%esp)
 804c740:	e8 e9 ff ff ff       	call   804c72e <_ZNSt3tr111_Tuple_implILi2EIEEC1Ev>
 804c745:	8b 45 0c             	mov    0xc(%ebp),%eax
 804c748:	8b 10                	mov    (%eax),%edx
 804c74a:	8b 45 08             	mov    0x8(%ebp),%eax
 804c74d:	89 10                	mov    %edx,(%eax)
 804c74f:	c9                   	leave  
 804c750:	c3                   	ret    

0804c751 <_ZNSt3tr13getILi0EI9MirrorImpiEEENS_9__add_refINS_13tuple_elementIXT_ENS_5tupleIIDpT0_EEEE4typeEE4typeERS7_>:
 804c751:	55                   	push   %ebp
 804c752:	89 e5                	mov    %esp,%ebp
 804c754:	83 ec 18             	sub    $0x18,%esp
 804c757:	8b 45 08             	mov    0x8(%ebp),%eax
 804c75a:	89 04 24             	mov    %eax,(%esp)
 804c75d:	e8 18 04 00 00       	call   804cb7a <_ZNSt3tr112__get_helperILi0E9MirrorImpIiEEENS_9__add_refIT0_E4typeERNS_11_Tuple_implIXT_EIS3_DpT1_EEE>
 804c762:	c9                   	leave  
 804c763:	c3                   	ret    

0804c764 <_ZNVKSt3tr13_MuI9MirrorImpLb0ELb0EEclIS1_NS_5tupleIIEEEEERT_S7_RKT0_>:
 804c764:	55                   	push   %ebp
 804c765:	89 e5                	mov    %esp,%ebp
 804c767:	8b 45 0c             	mov    0xc(%ebp),%eax
 804c76a:	5d                   	pop    %ebp
 804c76b:	c3                   	ret    

0804c76c <_ZNSt3tr13getILi1EI9MirrorImpiEEENS_9__add_refINS_13tuple_elementIXT_ENS_5tupleIIDpT0_EEEE4typeEE4typeERS7_>:
 804c76c:	55                   	push   %ebp
 804c76d:	89 e5                	mov    %esp,%ebp
 804c76f:	83 ec 18             	sub    $0x18,%esp
 804c772:	8b 45 08             	mov    0x8(%ebp),%eax
 804c775:	89 04 24             	mov    %eax,(%esp)
 804c778:	e8 08 04 00 00       	call   804cb85 <_ZNSt3tr112__get_helperILi1EiIEEENS_9__add_refIT0_E4typeERNS_11_Tuple_implIXT_EIS2_DpT1_EEE>
 804c77d:	c9                   	leave  
 804c77e:	c3                   	ret    
 804c77f:	90                   	nop

0804c780 <_ZNVKSt3tr13_MuIiLb0ELb0EEclIiNS_5tupleIIEEEEERT_S6_RKT0_>:
 804c780:	55                   	push   %ebp
 804c781:	89 e5                	mov    %esp,%ebp
 804c783:	8b 45 0c             	mov    0xc(%ebp),%eax
 804c786:	5d                   	pop    %ebp
 804c787:	c3                   	ret    

0804c788 <_ZNKSt3tr17_Mem_fnIM9MirrorImpFviEEclERS1_i>:
 804c788:	55                   	push   %ebp
 804c789:	89 e5                	mov    %esp,%ebp
 804c78b:	83 ec 18             	sub    $0x18,%esp
 804c78e:	8b 45 08             	mov    0x8(%ebp),%eax
 804c791:	8b 00                	mov    (%eax),%eax
 804c793:	83 e0 01             	and    $0x1,%eax
 804c796:	84 c0                	test   %al,%al
 804c798:	74 19                	je     804c7b3 <_ZNKSt3tr17_Mem_fnIM9MirrorImpFviEEclERS1_i+0x2b>
 804c79a:	8b 45 08             	mov    0x8(%ebp),%eax
 804c79d:	8b 40 04             	mov    0x4(%eax),%eax
 804c7a0:	03 45 0c             	add    0xc(%ebp),%eax
 804c7a3:	8b 10                	mov    (%eax),%edx
 804c7a5:	8b 45 08             	mov    0x8(%ebp),%eax
 804c7a8:	8b 00                	mov    (%eax),%eax
 804c7aa:	83 e8 01             	sub    $0x1,%eax
 804c7ad:	01 d0                	add    %edx,%eax
 804c7af:	8b 00                	mov    (%eax),%eax
 804c7b1:	eb 05                	jmp    804c7b8 <_ZNKSt3tr17_Mem_fnIM9MirrorImpFviEEclERS1_i+0x30>
 804c7b3:	8b 45 08             	mov    0x8(%ebp),%eax
 804c7b6:	8b 00                	mov    (%eax),%eax
 804c7b8:	8b 55 08             	mov    0x8(%ebp),%edx
 804c7bb:	8b 52 04             	mov    0x4(%edx),%edx
 804c7be:	03 55 0c             	add    0xc(%ebp),%edx
 804c7c1:	8b 4d 10             	mov    0x10(%ebp),%ecx
 804c7c4:	89 4c 24 04          	mov    %ecx,0x4(%esp)
 804c7c8:	89 14 24             	mov    %edx,(%esp)
 804c7cb:	ff d0                	call   *%eax
 804c7cd:	c9                   	leave  
 804c7ce:	c3                   	ret    
 804c7cf:	90                   	nop

0804c7d0 <_ZN9__gnu_cxx13new_allocatorIiEC1ERKS1_>:
 804c7d0:	55                   	push   %ebp
 804c7d1:	89 e5                	mov    %esp,%ebp
 804c7d3:	5d                   	pop    %ebp
 804c7d4:	c3                   	ret    
 804c7d5:	90                   	nop

0804c7d6 <_ZNK9__gnu_cxx13new_allocatorIiE8max_sizeEv>:
 804c7d6:	55                   	push   %ebp
 804c7d7:	89 e5                	mov    %esp,%ebp
 804c7d9:	b8 ff ff ff 3f       	mov    $0x3fffffff,%eax
 804c7de:	5d                   	pop    %ebp
 804c7df:	c3                   	ret    

0804c7e0 <_ZSt4copyIN9__gnu_cxx17__normal_iteratorIPKiSt6vectorIiSaIiEEEEPiET0_T_SA_S9_>:
 804c7e0:	55                   	push   %ebp
 804c7e1:	89 e5                	mov    %esp,%ebp
 804c7e3:	83 ec 28             	sub    $0x28,%esp
 804c7e6:	8d 45 f4             	lea    -0xc(%ebp),%eax
 804c7e9:	8b 55 0c             	mov    0xc(%ebp),%edx
 804c7ec:	89 54 24 04          	mov    %edx,0x4(%esp)
 804c7f0:	89 04 24             	mov    %eax,(%esp)
 804c7f3:	e8 95 03 00 00       	call   804cb8d <_ZSt12__miter_baseIN9__gnu_cxx17__normal_iteratorIPKiSt6vectorIiSaIiEEEEENSt11_Miter_baseIT_E13iterator_typeES9_>
 804c7f8:	83 ec 04             	sub    $0x4,%esp
 804c7fb:	8d 45 f0             	lea    -0x10(%ebp),%eax
 804c7fe:	8b 55 08             	mov    0x8(%ebp),%edx
 804c801:	89 54 24 04          	mov    %edx,0x4(%esp)
 804c805:	89 04 24             	mov    %eax,(%esp)
 804c808:	e8 80 03 00 00       	call   804cb8d <_ZSt12__miter_baseIN9__gnu_cxx17__normal_iteratorIPKiSt6vectorIiSaIiEEEEENSt11_Miter_baseIT_E13iterator_typeES9_>
 804c80d:	83 ec 04             	sub    $0x4,%esp
 804c810:	8b 45 10             	mov    0x10(%ebp),%eax
 804c813:	89 44 24 08          	mov    %eax,0x8(%esp)
 804c817:	8b 45 f4             	mov    -0xc(%ebp),%eax
 804c81a:	89 44 24 04          	mov    %eax,0x4(%esp)
 804c81e:	8b 45 f0             	mov    -0x10(%ebp),%eax
 804c821:	89 04 24             	mov    %eax,(%esp)
 804c824:	e8 86 03 00 00       	call   804cbaf <_ZSt14__copy_move_a2ILb0EN9__gnu_cxx17__normal_iteratorIPKiSt6vectorIiSaIiEEEEPiET1_T0_SA_S9_>
 804c829:	c9                   	leave  
 804c82a:	c3                   	ret    
 804c82b:	90                   	nop

0804c82c <_ZNSt3tr111_Tuple_implILi1EISt6vectorIiSaIiEEEEC1ERKS3_>:
 804c82c:	55                   	push   %ebp
 804c82d:	89 e5                	mov    %esp,%ebp
 804c82f:	83 ec 18             	sub    $0x18,%esp
 804c832:	8b 45 08             	mov    0x8(%ebp),%eax
 804c835:	89 04 24             	mov    %eax,(%esp)
 804c838:	e8 f1 fe ff ff       	call   804c72e <_ZNSt3tr111_Tuple_implILi2EIEEC1Ev>
 804c83d:	8b 45 08             	mov    0x8(%ebp),%eax
 804c840:	8b 55 0c             	mov    0xc(%ebp),%edx
 804c843:	89 54 24 04          	mov    %edx,0x4(%esp)
 804c847:	89 04 24             	mov    %eax,(%esp)
 804c84a:	e8 4b db ff ff       	call   804a39a <_ZNSt6vectorIiSaIiEEC1ERKS1_>
 804c84f:	c9                   	leave  
 804c850:	c3                   	ret    

0804c851 <_ZNSt3tr13getILi0EI9MirrorImpSt6vectorIiSaIiEEEEENS_9__add_refINS_13tuple_elementIXT_ENS_5tupleIIDpT0_EEEE4typeEE4typeERSA_>:
 804c851:	55                   	push   %ebp
 804c852:	89 e5                	mov    %esp,%ebp
 804c854:	83 ec 18             	sub    $0x18,%esp
 804c857:	8b 45 08             	mov    0x8(%ebp),%eax
 804c85a:	89 04 24             	mov    %eax,(%esp)
 804c85d:	e8 91 03 00 00       	call   804cbf3 <_ZNSt3tr112__get_helperILi0E9MirrorImpISt6vectorIiSaIiEEEEENS_9__add_refIT0_E4typeERNS_11_Tuple_implIXT_EIS6_DpT1_EEE>
 804c862:	c9                   	leave  
 804c863:	c3                   	ret    

0804c864 <_ZNSt3tr13getILi1EI9MirrorImpSt6vectorIiSaIiEEEEENS_9__add_refINS_13tuple_elementIXT_ENS_5tupleIIDpT0_EEEE4typeEE4typeERSA_>:
 804c864:	55                   	push   %ebp
 804c865:	89 e5                	mov    %esp,%ebp
 804c867:	83 ec 18             	sub    $0x18,%esp
 804c86a:	8b 45 08             	mov    0x8(%ebp),%eax
 804c86d:	89 04 24             	mov    %eax,(%esp)
 804c870:	e8 89 03 00 00       	call   804cbfe <_ZNSt3tr112__get_helperILi1ESt6vectorIiSaIiEEIEEENS_9__add_refIT0_E4typeERNS_11_Tuple_implIXT_EIS5_DpT1_EEE>
 804c875:	c9                   	leave  
 804c876:	c3                   	ret    
 804c877:	90                   	nop

0804c878 <_ZNVKSt3tr13_MuISt6vectorIiSaIiEELb0ELb0EEclIS3_NS_5tupleIIEEEEERT_S9_RKT0_>:
 804c878:	55                   	push   %ebp
 804c879:	89 e5                	mov    %esp,%ebp
 804c87b:	8b 45 0c             	mov    0xc(%ebp),%eax
 804c87e:	5d                   	pop    %ebp
 804c87f:	c3                   	ret    

0804c880 <_ZNKSt3tr17_Mem_fnIM9MirrorImpFvSt6vectorIiSaIiEEEEclERS1_S4_>:
 804c880:	55                   	push   %ebp
 804c881:	89 e5                	mov    %esp,%ebp
 804c883:	53                   	push   %ebx
 804c884:	83 ec 24             	sub    $0x24,%esp
 804c887:	8b 45 08             	mov    0x8(%ebp),%eax
 804c88a:	8b 00                	mov    (%eax),%eax
 804c88c:	83 e0 01             	and    $0x1,%eax
 804c88f:	84 c0                	test   %al,%al
 804c891:	74 1b                	je     804c8ae <_ZNKSt3tr17_Mem_fnIM9MirrorImpFvSt6vectorIiSaIiEEEEclERS1_S4_+0x2e>
 804c893:	8b 45 08             	mov    0x8(%ebp),%eax
 804c896:	8b 40 04             	mov    0x4(%eax),%eax
 804c899:	03 45 0c             	add    0xc(%ebp),%eax
 804c89c:	8b 10                	mov    (%eax),%edx
 804c89e:	8b 45 08             	mov    0x8(%ebp),%eax
 804c8a1:	8b 00                	mov    (%eax),%eax
 804c8a3:	83 e8 01             	sub    $0x1,%eax
 804c8a6:	01 d0                	add    %edx,%eax
 804c8a8:	8b 00                	mov    (%eax),%eax
 804c8aa:	89 c3                	mov    %eax,%ebx
 804c8ac:	eb 05                	jmp    804c8b3 <_ZNKSt3tr17_Mem_fnIM9MirrorImpFvSt6vectorIiSaIiEEEEclERS1_S4_+0x33>
 804c8ae:	8b 45 08             	mov    0x8(%ebp),%eax
 804c8b1:	8b 18                	mov    (%eax),%ebx
 804c8b3:	8b 45 10             	mov    0x10(%ebp),%eax
 804c8b6:	89 44 24 04          	mov    %eax,0x4(%esp)
 804c8ba:	8d 45 ec             	lea    -0x14(%ebp),%eax
 804c8bd:	89 04 24             	mov    %eax,(%esp)
 804c8c0:	e8 d5 da ff ff       	call   804a39a <_ZNSt6vectorIiSaIiEEC1ERKS1_>
 804c8c5:	8b 45 08             	mov    0x8(%ebp),%eax
 804c8c8:	8b 40 04             	mov    0x4(%eax),%eax
 804c8cb:	03 45 0c             	add    0xc(%ebp),%eax
 804c8ce:	8d 55 ec             	lea    -0x14(%ebp),%edx
 804c8d1:	89 54 24 04          	mov    %edx,0x4(%esp)
 804c8d5:	89 04 24             	mov    %eax,(%esp)
 804c8d8:	ff d3                	call   *%ebx
 804c8da:	8d 45 ec             	lea    -0x14(%ebp),%eax
 804c8dd:	89 04 24             	mov    %eax,(%esp)
 804c8e0:	e8 65 db ff ff       	call   804a44a <_ZNSt6vectorIiSaIiEED1Ev>
 804c8e5:	83 c4 24             	add    $0x24,%esp
 804c8e8:	5b                   	pop    %ebx
 804c8e9:	5d                   	pop    %ebp
 804c8ea:	c3                   	ret    
 804c8eb:	89 c3                	mov    %eax,%ebx
 804c8ed:	8d 45 ec             	lea    -0x14(%ebp),%eax
 804c8f0:	89 04 24             	mov    %eax,(%esp)
 804c8f3:	e8 52 db ff ff       	call   804a44a <_ZNSt6vectorIiSaIiEED1Ev>
 804c8f8:	89 d8                	mov    %ebx,%eax
 804c8fa:	89 04 24             	mov    %eax,(%esp)
 804c8fd:	e8 0e c8 ff ff       	call   8049110 <_Unwind_Resume@plt>

0804c902 <_ZN9__gnu_cxx13new_allocatorIiEC1Ev>:
 804c902:	55                   	push   %ebp
 804c903:	89 e5                	mov    %esp,%ebp
 804c905:	5d                   	pop    %ebp
 804c906:	c3                   	ret    

0804c907 <_ZNSt10_Iter_baseIPiLb0EE7_S_baseES0_>:
 804c907:	55                   	push   %ebp
 804c908:	89 e5                	mov    %esp,%ebp
 804c90a:	8b 45 08             	mov    0x8(%ebp),%eax
 804c90d:	5d                   	pop    %ebp
 804c90e:	c3                   	ret    

0804c90f <_ZSt12__niter_baseIPiENSt11_Niter_baseIT_E13iterator_typeES2_>:
 804c90f:	55                   	push   %ebp
 804c910:	89 e5                	mov    %esp,%ebp
 804c912:	83 ec 18             	sub    $0x18,%esp
 804c915:	8b 45 08             	mov    0x8(%ebp),%eax
 804c918:	89 04 24             	mov    %eax,(%esp)
 804c91b:	e8 e7 ff ff ff       	call   804c907 <_ZNSt10_Iter_baseIPiLb0EE7_S_baseES0_>
 804c920:	c9                   	leave  
 804c921:	c3                   	ret    

0804c922 <_ZSt22__copy_move_backward_aILb0EPiS0_ET1_T0_S2_S1_>:
 804c922:	55                   	push   %ebp
 804c923:	89 e5                	mov    %esp,%ebp
 804c925:	83 ec 28             	sub    $0x28,%esp
 804c928:	c6 45 f7 01          	movb   $0x1,-0x9(%ebp)
 804c92c:	8b 45 10             	mov    0x10(%ebp),%eax
 804c92f:	89 44 24 08          	mov    %eax,0x8(%esp)
 804c933:	8b 45 0c             	mov    0xc(%ebp),%eax
 804c936:	89 44 24 04          	mov    %eax,0x4(%esp)
 804c93a:	8b 45 08             	mov    0x8(%ebp),%eax
 804c93d:	89 04 24             	mov    %eax,(%esp)
 804c940:	e8 c1 02 00 00       	call   804cc06 <_ZNSt20__copy_move_backwardILb0ELb1ESt26random_access_iterator_tagE13__copy_move_bIiEEPT_PKS3_S6_S4_>
 804c945:	c9                   	leave  
 804c946:	c3                   	ret    

0804c947 <_ZSt18uninitialized_copyIPiS0_ET0_T_S2_S1_>:
 804c947:	55                   	push   %ebp
 804c948:	89 e5                	mov    %esp,%ebp
 804c94a:	83 ec 18             	sub    $0x18,%esp
 804c94d:	8b 45 10             	mov    0x10(%ebp),%eax
 804c950:	89 44 24 08          	mov    %eax,0x8(%esp)
 804c954:	8b 45 0c             	mov    0xc(%ebp),%eax
 804c957:	89 44 24 04          	mov    %eax,0x4(%esp)
 804c95b:	8b 45 08             	mov    0x8(%ebp),%eax
 804c95e:	89 04 24             	mov    %eax,(%esp)
 804c961:	e8 f3 02 00 00       	call   804cc59 <_ZNSt20__uninitialized_copyILb1EE13__uninit_copyIPiS2_EET0_T_S4_S3_>
 804c966:	c9                   	leave  
 804c967:	c3                   	ret    

0804c968 <_ZNK9__gnu_cxx13new_allocatorIPNSt3tr18functionIFvvEEEE8max_sizeEv>:
 804c968:	55                   	push   %ebp
 804c969:	89 e5                	mov    %esp,%ebp
 804c96b:	b8 ff ff ff 3f       	mov    $0x3fffffff,%eax
 804c970:	5d                   	pop    %ebp
 804c971:	c3                   	ret    

0804c972 <_ZN9__gnu_cxx13new_allocatorIPNSt3tr18functionIFvvEEEEC1Ev>:
 804c972:	55                   	push   %ebp
 804c973:	89 e5                	mov    %esp,%ebp
 804c975:	5d                   	pop    %ebp
 804c976:	c3                   	ret    

0804c977 <_ZNSt12_Destroy_auxILb0EE9__destroyIPNSt3tr18functionIFvvEEEEEvT_S7_>:
 804c977:	55                   	push   %ebp
 804c978:	89 e5                	mov    %esp,%ebp
 804c97a:	83 ec 18             	sub    $0x18,%esp
 804c97d:	eb 17                	jmp    804c996 <_ZNSt12_Destroy_auxILb0EE9__destroyIPNSt3tr18functionIFvvEEEEEvT_S7_+0x1f>
 804c97f:	8b 45 08             	mov    0x8(%ebp),%eax
 804c982:	89 04 24             	mov    %eax,(%esp)
 804c985:	e8 d2 00 00 00       	call   804ca5c <_ZSt11__addressofINSt3tr18functionIFvvEEEEPT_RS4_>
 804c98a:	89 04 24             	mov    %eax,(%esp)
 804c98d:	e8 e8 02 00 00       	call   804cc7a <_ZSt8_DestroyINSt3tr18functionIFvvEEEEvPT_>
 804c992:	83 45 08 10          	addl   $0x10,0x8(%ebp)
 804c996:	8b 45 08             	mov    0x8(%ebp),%eax
 804c999:	3b 45 0c             	cmp    0xc(%ebp),%eax
 804c99c:	0f 95 c0             	setne  %al
 804c99f:	84 c0                	test   %al,%al
 804c9a1:	75 dc                	jne    804c97f <_ZNSt12_Destroy_auxILb0EE9__destroyIPNSt3tr18functionIFvvEEEEEvT_S7_+0x8>
 804c9a3:	c9                   	leave  
 804c9a4:	c3                   	ret    
 804c9a5:	90                   	nop

0804c9a6 <_ZN9__gnu_cxx13new_allocatorINSt3tr18functionIFvvEEEEC1ERKS5_>:
 804c9a6:	55                   	push   %ebp
 804c9a7:	89 e5                	mov    %esp,%ebp
 804c9a9:	5d                   	pop    %ebp
 804c9aa:	c3                   	ret    

0804c9ab <_ZStneINSt3tr18functionIFvvEEERKS3_PS4_EbRKSt15_Deque_iteratorIT_T0_T1_ESD_>:
 804c9ab:	55                   	push   %ebp
 804c9ac:	89 e5                	mov    %esp,%ebp
 804c9ae:	83 ec 18             	sub    $0x18,%esp
 804c9b1:	8b 45 0c             	mov    0xc(%ebp),%eax
 804c9b4:	89 44 24 04          	mov    %eax,0x4(%esp)
 804c9b8:	8b 45 08             	mov    0x8(%ebp),%eax
 804c9bb:	89 04 24             	mov    %eax,(%esp)
 804c9be:	e8 ca 02 00 00       	call   804cc8d <_ZSteqINSt3tr18functionIFvvEEERKS3_PS4_EbRKSt15_Deque_iteratorIT_T0_T1_ESD_>
 804c9c3:	83 f0 01             	xor    $0x1,%eax
 804c9c6:	c9                   	leave  
 804c9c7:	c3                   	ret    

0804c9c8 <_ZNSt15_Deque_iteratorINSt3tr18functionIFvvEEERS3_PS3_EppEv>:
 804c9c8:	55                   	push   %ebp
 804c9c9:	89 e5                	mov    %esp,%ebp
 804c9cb:	83 ec 18             	sub    $0x18,%esp
 804c9ce:	8b 45 08             	mov    0x8(%ebp),%eax
 804c9d1:	8b 00                	mov    (%eax),%eax
 804c9d3:	8d 50 10             	lea    0x10(%eax),%edx
 804c9d6:	8b 45 08             	mov    0x8(%ebp),%eax
 804c9d9:	89 10                	mov    %edx,(%eax)
 804c9db:	8b 45 08             	mov    0x8(%ebp),%eax
 804c9de:	8b 10                	mov    (%eax),%edx
 804c9e0:	8b 45 08             	mov    0x8(%ebp),%eax
 804c9e3:	8b 40 08             	mov    0x8(%eax),%eax
 804c9e6:	39 c2                	cmp    %eax,%edx
 804c9e8:	75 23                	jne    804ca0d <_ZNSt15_Deque_iteratorINSt3tr18functionIFvvEEERS3_PS3_EppEv+0x45>
 804c9ea:	8b 45 08             	mov    0x8(%ebp),%eax
 804c9ed:	8b 40 0c             	mov    0xc(%eax),%eax
 804c9f0:	83 c0 04             	add    $0x4,%eax
 804c9f3:	89 44 24 04          	mov    %eax,0x4(%esp)
 804c9f7:	8b 45 08             	mov    0x8(%ebp),%eax
 804c9fa:	89 04 24             	mov    %eax,(%esp)
 804c9fd:	e8 56 f4 ff ff       	call   804be58 <_ZNSt15_Deque_iteratorINSt3tr18functionIFvvEEERS3_PS3_E11_M_set_nodeEPS5_>
 804ca02:	8b 45 08             	mov    0x8(%ebp),%eax
 804ca05:	8b 50 04             	mov    0x4(%eax),%edx
 804ca08:	8b 45 08             	mov    0x8(%ebp),%eax
 804ca0b:	89 10                	mov    %edx,(%eax)
 804ca0d:	8b 45 08             	mov    0x8(%ebp),%eax
 804ca10:	c9                   	leave  
 804ca11:	c3                   	ret    

0804ca12 <_ZNSt15_Deque_iteratorINSt3tr18functionIFvvEEERKS3_PS4_EppEv>:
 804ca12:	55                   	push   %ebp
 804ca13:	89 e5                	mov    %esp,%ebp
 804ca15:	83 ec 18             	sub    $0x18,%esp
 804ca18:	8b 45 08             	mov    0x8(%ebp),%eax
 804ca1b:	8b 00                	mov    (%eax),%eax
 804ca1d:	8d 50 10             	lea    0x10(%eax),%edx
 804ca20:	8b 45 08             	mov    0x8(%ebp),%eax
 804ca23:	89 10                	mov    %edx,(%eax)
 804ca25:	8b 45 08             	mov    0x8(%ebp),%eax
 804ca28:	8b 10                	mov    (%eax),%edx
 804ca2a:	8b 45 08             	mov    0x8(%ebp),%eax
 804ca2d:	8b 40 08             	mov    0x8(%eax),%eax
 804ca30:	39 c2                	cmp    %eax,%edx
 804ca32:	75 23                	jne    804ca57 <_ZNSt15_Deque_iteratorINSt3tr18functionIFvvEEERKS3_PS4_EppEv+0x45>
 804ca34:	8b 45 08             	mov    0x8(%ebp),%eax
 804ca37:	8b 40 0c             	mov    0xc(%eax),%eax
 804ca3a:	83 c0 04             	add    $0x4,%eax
 804ca3d:	89 44 24 04          	mov    %eax,0x4(%esp)
 804ca41:	8b 45 08             	mov    0x8(%ebp),%eax
 804ca44:	89 04 24             	mov    %eax,(%esp)
 804ca47:	e8 56 02 00 00       	call   804cca2 <_ZNSt15_Deque_iteratorINSt3tr18functionIFvvEEERKS3_PS4_E11_M_set_nodeEPPS3_>
 804ca4c:	8b 45 08             	mov    0x8(%ebp),%eax
 804ca4f:	8b 50 04             	mov    0x4(%eax),%edx
 804ca52:	8b 45 08             	mov    0x8(%ebp),%eax
 804ca55:	89 10                	mov    %edx,(%eax)
 804ca57:	8b 45 08             	mov    0x8(%ebp),%eax
 804ca5a:	c9                   	leave  
 804ca5b:	c3                   	ret    

0804ca5c <_ZSt11__addressofINSt3tr18functionIFvvEEEEPT_RS4_>:
 804ca5c:	55                   	push   %ebp
 804ca5d:	89 e5                	mov    %esp,%ebp
 804ca5f:	8b 45 08             	mov    0x8(%ebp),%eax
 804ca62:	5d                   	pop    %ebp
 804ca63:	c3                   	ret    

0804ca64 <_ZNKSt15_Deque_iteratorINSt3tr18functionIFvvEEERKS3_PS4_EdeEv>:
 804ca64:	55                   	push   %ebp
 804ca65:	89 e5                	mov    %esp,%ebp
 804ca67:	8b 45 08             	mov    0x8(%ebp),%eax
 804ca6a:	8b 00                	mov    (%eax),%eax
 804ca6c:	5d                   	pop    %ebp
 804ca6d:	c3                   	ret    

0804ca6e <_ZSt10_ConstructINSt3tr18functionIFvvEEES3_EvPT_RKT0_>:
 804ca6e:	55                   	push   %ebp
 804ca6f:	89 e5                	mov    %esp,%ebp
 804ca71:	57                   	push   %edi
 804ca72:	56                   	push   %esi
 804ca73:	53                   	push   %ebx
 804ca74:	83 ec 1c             	sub    $0x1c,%esp
 804ca77:	8b 75 08             	mov    0x8(%ebp),%esi
 804ca7a:	89 74 24 04          	mov    %esi,0x4(%esp)
 804ca7e:	c7 04 24 10 00 00 00 	movl   $0x10,(%esp)
 804ca85:	e8 18 c9 ff ff       	call   80493a2 <_ZnwjPv>
 804ca8a:	89 c3                	mov    %eax,%ebx
 804ca8c:	85 db                	test   %ebx,%ebx
 804ca8e:	74 29                	je     804cab9 <_ZSt10_ConstructINSt3tr18functionIFvvEEES3_EvPT_RKT0_+0x4b>
 804ca90:	8b 45 0c             	mov    0xc(%ebp),%eax
 804ca93:	89 44 24 04          	mov    %eax,0x4(%esp)
 804ca97:	89 1c 24             	mov    %ebx,(%esp)
 804ca9a:	e8 cd d5 ff ff       	call   804a06c <_ZNSt3tr18functionIFvvEEC1ERKS2_>
 804ca9f:	eb 18                	jmp    804cab9 <_ZSt10_ConstructINSt3tr18functionIFvvEEES3_EvPT_RKT0_+0x4b>
 804caa1:	89 c7                	mov    %eax,%edi
 804caa3:	89 74 24 04          	mov    %esi,0x4(%esp)
 804caa7:	89 1c 24             	mov    %ebx,(%esp)
 804caaa:	e8 fb c8 ff ff       	call   80493aa <_ZdlPvS_>
 804caaf:	89 f8                	mov    %edi,%eax
 804cab1:	89 04 24             	mov    %eax,(%esp)
 804cab4:	e8 57 c6 ff ff       	call   8049110 <_Unwind_Resume@plt>
 804cab9:	83 c4 1c             	add    $0x1c,%esp
 804cabc:	5b                   	pop    %ebx
 804cabd:	5e                   	pop    %esi
 804cabe:	5f                   	pop    %edi
 804cabf:	5d                   	pop    %ebp
 804cac0:	c3                   	ret    

0804cac1 <_ZSt8_DestroyISt15_Deque_iteratorINSt3tr18functionIFvvEEERS4_PS4_EEvT_S8_>:
 804cac1:	55                   	push   %ebp
 804cac2:	89 e5                	mov    %esp,%ebp
 804cac4:	83 ec 38             	sub    $0x38,%esp
 804cac7:	8b 45 0c             	mov    0xc(%ebp),%eax
 804caca:	89 44 24 04          	mov    %eax,0x4(%esp)
 804cace:	8d 45 e8             	lea    -0x18(%ebp),%eax
 804cad1:	89 04 24             	mov    %eax,(%esp)
 804cad4:	e8 a7 dc ff ff       	call   804a780 <_ZNSt15_Deque_iteratorINSt3tr18functionIFvvEEERS3_PS3_EC1ERKS6_>
 804cad9:	8b 45 08             	mov    0x8(%ebp),%eax
 804cadc:	89 44 24 04          	mov    %eax,0x4(%esp)
 804cae0:	8d 45 d8             	lea    -0x28(%ebp),%eax
 804cae3:	89 04 24             	mov    %eax,(%esp)
 804cae6:	e8 95 dc ff ff       	call   804a780 <_ZNSt15_Deque_iteratorINSt3tr18functionIFvvEEERS3_PS3_EC1ERKS6_>
 804caeb:	8d 45 e8             	lea    -0x18(%ebp),%eax
 804caee:	89 44 24 04          	mov    %eax,0x4(%esp)
 804caf2:	8d 45 d8             	lea    -0x28(%ebp),%eax
 804caf5:	89 04 24             	mov    %eax,(%esp)
 804caf8:	e8 dd 01 00 00       	call   804ccda <_ZNSt12_Destroy_auxILb0EE9__destroyISt15_Deque_iteratorINSt3tr18functionIFvvEEERS6_PS6_EEEvT_SA_>
 804cafd:	c9                   	leave  
 804cafe:	c3                   	ret    

0804caff <_ZSt4copyIPPNSt3tr18functionIFvvEEES5_ET0_T_S7_S6_>:
 804caff:	55                   	push   %ebp
 804cb00:	89 e5                	mov    %esp,%ebp
 804cb02:	53                   	push   %ebx
 804cb03:	83 ec 14             	sub    $0x14,%esp
 804cb06:	8b 45 0c             	mov    0xc(%ebp),%eax
 804cb09:	89 04 24             	mov    %eax,(%esp)
 804cb0c:	e8 0f 02 00 00       	call   804cd20 <_ZSt12__miter_baseIPPNSt3tr18functionIFvvEEEENSt11_Miter_baseIT_E13iterator_typeES7_>
 804cb11:	89 c3                	mov    %eax,%ebx
 804cb13:	8b 45 08             	mov    0x8(%ebp),%eax
 804cb16:	89 04 24             	mov    %eax,(%esp)
 804cb19:	e8 02 02 00 00       	call   804cd20 <_ZSt12__miter_baseIPPNSt3tr18functionIFvvEEEENSt11_Miter_baseIT_E13iterator_typeES7_>
 804cb1e:	8b 55 10             	mov    0x10(%ebp),%edx
 804cb21:	89 54 24 08          	mov    %edx,0x8(%esp)
 804cb25:	89 5c 24 04          	mov    %ebx,0x4(%esp)
 804cb29:	89 04 24             	mov    %eax,(%esp)
 804cb2c:	e8 02 02 00 00       	call   804cd33 <_ZSt14__copy_move_a2ILb0EPPNSt3tr18functionIFvvEEES5_ET1_T0_S7_S6_>
 804cb31:	83 c4 14             	add    $0x14,%esp
 804cb34:	5b                   	pop    %ebx
 804cb35:	5d                   	pop    %ebp
 804cb36:	c3                   	ret    

0804cb37 <_ZSt13copy_backwardIPPNSt3tr18functionIFvvEEES5_ET0_T_S7_S6_>:
 804cb37:	55                   	push   %ebp
 804cb38:	89 e5                	mov    %esp,%ebp
 804cb3a:	53                   	push   %ebx
 804cb3b:	83 ec 14             	sub    $0x14,%esp
 804cb3e:	8b 45 0c             	mov    0xc(%ebp),%eax
 804cb41:	89 04 24             	mov    %eax,(%esp)
 804cb44:	e8 d7 01 00 00       	call   804cd20 <_ZSt12__miter_baseIPPNSt3tr18functionIFvvEEEENSt11_Miter_baseIT_E13iterator_typeES7_>
 804cb49:	89 c3                	mov    %eax,%ebx
 804cb4b:	8b 45 08             	mov    0x8(%ebp),%eax
 804cb4e:	89 04 24             	mov    %eax,(%esp)
 804cb51:	e8 ca 01 00 00       	call   804cd20 <_ZSt12__miter_baseIPPNSt3tr18functionIFvvEEEENSt11_Miter_baseIT_E13iterator_typeES7_>
 804cb56:	8b 55 10             	mov    0x10(%ebp),%edx
 804cb59:	89 54 24 08          	mov    %edx,0x8(%esp)
 804cb5d:	89 5c 24 04          	mov    %ebx,0x4(%esp)
 804cb61:	89 04 24             	mov    %eax,(%esp)
 804cb64:	e8 0e 02 00 00       	call   804cd77 <_ZSt23__copy_move_backward_a2ILb0EPPNSt3tr18functionIFvvEEES5_ET1_T0_S7_S6_>
 804cb69:	83 c4 14             	add    $0x14,%esp
 804cb6c:	5b                   	pop    %ebx
 804cb6d:	5d                   	pop    %ebp
 804cb6e:	c3                   	ret    
 804cb6f:	90                   	nop

0804cb70 <_ZNK9__gnu_cxx13new_allocatorINSt3tr18functionIFvvEEEE8max_sizeEv>:
 804cb70:	55                   	push   %ebp
 804cb71:	89 e5                	mov    %esp,%ebp
 804cb73:	b8 ff ff ff 0f       	mov    $0xfffffff,%eax
 804cb78:	5d                   	pop    %ebp
 804cb79:	c3                   	ret    

0804cb7a <_ZNSt3tr112__get_helperILi0E9MirrorImpIiEEENS_9__add_refIT0_E4typeERNS_11_Tuple_implIXT_EIS3_DpT1_EEE>:
 804cb7a:	55                   	push   %ebp
 804cb7b:	89 e5                	mov    %esp,%ebp
 804cb7d:	8b 45 08             	mov    0x8(%ebp),%eax
 804cb80:	83 c0 04             	add    $0x4,%eax
 804cb83:	5d                   	pop    %ebp
 804cb84:	c3                   	ret    

0804cb85 <_ZNSt3tr112__get_helperILi1EiIEEENS_9__add_refIT0_E4typeERNS_11_Tuple_implIXT_EIS2_DpT1_EEE>:
 804cb85:	55                   	push   %ebp
 804cb86:	89 e5                	mov    %esp,%ebp
 804cb88:	8b 45 08             	mov    0x8(%ebp),%eax
 804cb8b:	5d                   	pop    %ebp
 804cb8c:	c3                   	ret    

0804cb8d <_ZSt12__miter_baseIN9__gnu_cxx17__normal_iteratorIPKiSt6vectorIiSaIiEEEEENSt11_Miter_baseIT_E13iterator_typeES9_>:
 804cb8d:	55                   	push   %ebp
 804cb8e:	89 e5                	mov    %esp,%ebp
 804cb90:	83 ec 18             	sub    $0x18,%esp
 804cb93:	8b 45 08             	mov    0x8(%ebp),%eax
 804cb96:	8b 55 0c             	mov    0xc(%ebp),%edx
 804cb99:	89 54 24 04          	mov    %edx,0x4(%esp)
 804cb9d:	89 04 24             	mov    %eax,(%esp)
 804cba0:	e8 16 02 00 00       	call   804cdbb <_ZNSt10_Iter_baseIN9__gnu_cxx17__normal_iteratorIPKiSt6vectorIiSaIiEEEELb0EE7_S_baseES7_>
 804cba5:	83 ec 04             	sub    $0x4,%esp
 804cba8:	8b 45 08             	mov    0x8(%ebp),%eax
 804cbab:	c9                   	leave  
 804cbac:	c2 04 00             	ret    $0x4

0804cbaf <_ZSt14__copy_move_a2ILb0EN9__gnu_cxx17__normal_iteratorIPKiSt6vectorIiSaIiEEEEPiET1_T0_SA_S9_>:
 804cbaf:	55                   	push   %ebp
 804cbb0:	89 e5                	mov    %esp,%ebp
 804cbb2:	56                   	push   %esi
 804cbb3:	53                   	push   %ebx
 804cbb4:	83 ec 10             	sub    $0x10,%esp
 804cbb7:	8b 45 10             	mov    0x10(%ebp),%eax
 804cbba:	89 04 24             	mov    %eax,(%esp)
 804cbbd:	e8 4d fd ff ff       	call   804c90f <_ZSt12__niter_baseIPiENSt11_Niter_baseIT_E13iterator_typeES2_>
 804cbc2:	89 c3                	mov    %eax,%ebx
 804cbc4:	8b 45 0c             	mov    0xc(%ebp),%eax
 804cbc7:	89 04 24             	mov    %eax,(%esp)
 804cbca:	e8 fe 01 00 00       	call   804cdcd <_ZSt12__niter_baseIN9__gnu_cxx17__normal_iteratorIPKiSt6vectorIiSaIiEEEEENSt11_Niter_baseIT_E13iterator_typeES9_>
 804cbcf:	89 c6                	mov    %eax,%esi
 804cbd1:	8b 45 08             	mov    0x8(%ebp),%eax
 804cbd4:	89 04 24             	mov    %eax,(%esp)
 804cbd7:	e8 f1 01 00 00       	call   804cdcd <_ZSt12__niter_baseIN9__gnu_cxx17__normal_iteratorIPKiSt6vectorIiSaIiEEEEENSt11_Niter_baseIT_E13iterator_typeES9_>
 804cbdc:	89 5c 24 08          	mov    %ebx,0x8(%esp)
 804cbe0:	89 74 24 04          	mov    %esi,0x4(%esp)
 804cbe4:	89 04 24             	mov    %eax,(%esp)
 804cbe7:	e8 f4 01 00 00       	call   804cde0 <_ZSt13__copy_move_aILb0EPKiPiET1_T0_S4_S3_>
 804cbec:	83 c4 10             	add    $0x10,%esp
 804cbef:	5b                   	pop    %ebx
 804cbf0:	5e                   	pop    %esi
 804cbf1:	5d                   	pop    %ebp
 804cbf2:	c3                   	ret    

0804cbf3 <_ZNSt3tr112__get_helperILi0E9MirrorImpISt6vectorIiSaIiEEEEENS_9__add_refIT0_E4typeERNS_11_Tuple_implIXT_EIS6_DpT1_EEE>:
 804cbf3:	55                   	push   %ebp
 804cbf4:	89 e5                	mov    %esp,%ebp
 804cbf6:	8b 45 08             	mov    0x8(%ebp),%eax
 804cbf9:	83 c0 0c             	add    $0xc,%eax
 804cbfc:	5d                   	pop    %ebp
 804cbfd:	c3                   	ret    

0804cbfe <_ZNSt3tr112__get_helperILi1ESt6vectorIiSaIiEEIEEENS_9__add_refIT0_E4typeERNS_11_Tuple_implIXT_EIS5_DpT1_EEE>:
 804cbfe:	55                   	push   %ebp
 804cbff:	89 e5                	mov    %esp,%ebp
 804cc01:	8b 45 08             	mov    0x8(%ebp),%eax
 804cc04:	5d                   	pop    %ebp
 804cc05:	c3                   	ret    

0804cc06 <_ZNSt20__copy_move_backwardILb0ELb1ESt26random_access_iterator_tagE13__copy_move_bIiEEPT_PKS3_S6_S4_>:
 804cc06:	55                   	push   %ebp
 804cc07:	89 e5                	mov    %esp,%ebp
 804cc09:	83 ec 28             	sub    $0x28,%esp
 804cc0c:	8b 55 0c             	mov    0xc(%ebp),%edx
 804cc0f:	8b 45 08             	mov    0x8(%ebp),%eax
 804cc12:	89 d1                	mov    %edx,%ecx
 804cc14:	29 c1                	sub    %eax,%ecx
 804cc16:	89 c8                	mov    %ecx,%eax
 804cc18:	c1 f8 02             	sar    $0x2,%eax
 804cc1b:	89 45 f4             	mov    %eax,-0xc(%ebp)
 804cc1e:	83 7d f4 00          	cmpl   $0x0,-0xc(%ebp)
 804cc22:	74 28                	je     804cc4c <_ZNSt20__copy_move_backwardILb0ELb1ESt26random_access_iterator_tagE13__copy_move_bIiEEPT_PKS3_S6_S4_+0x46>
 804cc24:	8b 45 f4             	mov    -0xc(%ebp),%eax
 804cc27:	8d 14 85 00 00 00 00 	lea    0x0(,%eax,4),%edx
 804cc2e:	8b 45 f4             	mov    -0xc(%ebp),%eax
 804cc31:	c1 e0 02             	shl    $0x2,%eax
 804cc34:	f7 d8                	neg    %eax
 804cc36:	03 45 10             	add    0x10(%ebp),%eax
 804cc39:	89 54 24 08          	mov    %edx,0x8(%esp)
 804cc3d:	8b 55 08             	mov    0x8(%ebp),%edx
 804cc40:	89 54 24 04          	mov    %edx,0x4(%esp)
 804cc44:	89 04 24             	mov    %eax,(%esp)
 804cc47:	e8 e4 c4 ff ff       	call   8049130 <memmove@plt>
 804cc4c:	8b 45 f4             	mov    -0xc(%ebp),%eax
 804cc4f:	c1 e0 02             	shl    $0x2,%eax
 804cc52:	f7 d8                	neg    %eax
 804cc54:	03 45 10             	add    0x10(%ebp),%eax
 804cc57:	c9                   	leave  
 804cc58:	c3                   	ret    

0804cc59 <_ZNSt20__uninitialized_copyILb1EE13__uninit_copyIPiS2_EET0_T_S4_S3_>:
 804cc59:	55                   	push   %ebp
 804cc5a:	89 e5                	mov    %esp,%ebp
 804cc5c:	83 ec 18             	sub    $0x18,%esp
 804cc5f:	8b 45 10             	mov    0x10(%ebp),%eax
 804cc62:	89 44 24 08          	mov    %eax,0x8(%esp)
 804cc66:	8b 45 0c             	mov    0xc(%ebp),%eax
 804cc69:	89 44 24 04          	mov    %eax,0x4(%esp)
 804cc6d:	8b 45 08             	mov    0x8(%ebp),%eax
 804cc70:	89 04 24             	mov    %eax,(%esp)
 804cc73:	e8 8d 01 00 00       	call   804ce05 <_ZSt4copyIPiS0_ET0_T_S2_S1_>
 804cc78:	c9                   	leave  
 804cc79:	c3                   	ret    

0804cc7a <_ZSt8_DestroyINSt3tr18functionIFvvEEEEvPT_>:
 804cc7a:	55                   	push   %ebp
 804cc7b:	89 e5                	mov    %esp,%ebp
 804cc7d:	83 ec 18             	sub    $0x18,%esp
 804cc80:	8b 45 08             	mov    0x8(%ebp),%eax
 804cc83:	89 04 24             	mov    %eax,(%esp)
 804cc86:	e8 07 cb ff ff       	call   8049792 <_ZNSt3tr18functionIFvvEED1Ev>
 804cc8b:	c9                   	leave  
 804cc8c:	c3                   	ret    

0804cc8d <_ZSteqINSt3tr18functionIFvvEEERKS3_PS4_EbRKSt15_Deque_iteratorIT_T0_T1_ESD_>:
 804cc8d:	55                   	push   %ebp
 804cc8e:	89 e5                	mov    %esp,%ebp
 804cc90:	8b 45 08             	mov    0x8(%ebp),%eax
 804cc93:	8b 10                	mov    (%eax),%edx
 804cc95:	8b 45 0c             	mov    0xc(%ebp),%eax
 804cc98:	8b 00                	mov    (%eax),%eax
 804cc9a:	39 c2                	cmp    %eax,%edx
 804cc9c:	0f 94 c0             	sete   %al
 804cc9f:	5d                   	pop    %ebp
 804cca0:	c3                   	ret    
 804cca1:	90                   	nop

0804cca2 <_ZNSt15_Deque_iteratorINSt3tr18functionIFvvEEERKS3_PS4_E11_M_set_nodeEPPS3_>:
 804cca2:	55                   	push   %ebp
 804cca3:	89 e5                	mov    %esp,%ebp
 804cca5:	53                   	push   %ebx
 804cca6:	83 ec 04             	sub    $0x4,%esp
 804cca9:	8b 45 08             	mov    0x8(%ebp),%eax
 804ccac:	8b 55 0c             	mov    0xc(%ebp),%edx
 804ccaf:	89 50 0c             	mov    %edx,0xc(%eax)
 804ccb2:	8b 45 0c             	mov    0xc(%ebp),%eax
 804ccb5:	8b 10                	mov    (%eax),%edx
 804ccb7:	8b 45 08             	mov    0x8(%ebp),%eax
 804ccba:	89 50 04             	mov    %edx,0x4(%eax)
 804ccbd:	8b 45 08             	mov    0x8(%ebp),%eax
 804ccc0:	8b 58 04             	mov    0x4(%eax),%ebx
 804ccc3:	e8 75 01 00 00       	call   804ce3d <_ZNSt15_Deque_iteratorINSt3tr18functionIFvvEEERKS3_PS4_E14_S_buffer_sizeEv>
 804ccc8:	c1 e0 04             	shl    $0x4,%eax
 804cccb:	8d 14 03             	lea    (%ebx,%eax,1),%edx
 804ccce:	8b 45 08             	mov    0x8(%ebp),%eax
 804ccd1:	89 50 08             	mov    %edx,0x8(%eax)
 804ccd4:	83 c4 04             	add    $0x4,%esp
 804ccd7:	5b                   	pop    %ebx
 804ccd8:	5d                   	pop    %ebp
 804ccd9:	c3                   	ret    

0804ccda <_ZNSt12_Destroy_auxILb0EE9__destroyISt15_Deque_iteratorINSt3tr18functionIFvvEEERS6_PS6_EEEvT_SA_>:
 804ccda:	55                   	push   %ebp
 804ccdb:	89 e5                	mov    %esp,%ebp
 804ccdd:	83 ec 18             	sub    $0x18,%esp
 804cce0:	eb 26                	jmp    804cd08 <_ZNSt12_Destroy_auxILb0EE9__destroyISt15_Deque_iteratorINSt3tr18functionIFvvEEERS6_PS6_EEEvT_SA_+0x2e>
 804cce2:	8b 45 08             	mov    0x8(%ebp),%eax
 804cce5:	89 04 24             	mov    %eax,(%esp)
 804cce8:	e8 db e8 ff ff       	call   804b5c8 <_ZNKSt15_Deque_iteratorINSt3tr18functionIFvvEEERS3_PS3_EdeEv>
 804cced:	89 04 24             	mov    %eax,(%esp)
 804ccf0:	e8 67 fd ff ff       	call   804ca5c <_ZSt11__addressofINSt3tr18functionIFvvEEEEPT_RS4_>
 804ccf5:	89 04 24             	mov    %eax,(%esp)
 804ccf8:	e8 7d ff ff ff       	call   804cc7a <_ZSt8_DestroyINSt3tr18functionIFvvEEEEvPT_>
 804ccfd:	8b 45 08             	mov    0x8(%ebp),%eax
 804cd00:	89 04 24             	mov    %eax,(%esp)
 804cd03:	e8 c0 fc ff ff       	call   804c9c8 <_ZNSt15_Deque_iteratorINSt3tr18functionIFvvEEERS3_PS3_EppEv>
 804cd08:	8b 45 0c             	mov    0xc(%ebp),%eax
 804cd0b:	89 44 24 04          	mov    %eax,0x4(%esp)
 804cd0f:	8b 45 08             	mov    0x8(%ebp),%eax
 804cd12:	89 04 24             	mov    %eax,(%esp)
 804cd15:	e8 37 01 00 00       	call   804ce51 <_ZStneINSt3tr18functionIFvvEEERS3_PS3_EbRKSt15_Deque_iteratorIT_T0_T1_ESC_>
 804cd1a:	84 c0                	test   %al,%al
 804cd1c:	75 c4                	jne    804cce2 <_ZNSt12_Destroy_auxILb0EE9__destroyISt15_Deque_iteratorINSt3tr18functionIFvvEEERS6_PS6_EEEvT_SA_+0x8>
 804cd1e:	c9                   	leave  
 804cd1f:	c3                   	ret    

0804cd20 <_ZSt12__miter_baseIPPNSt3tr18functionIFvvEEEENSt11_Miter_baseIT_E13iterator_typeES7_>:
 804cd20:	55                   	push   %ebp
 804cd21:	89 e5                	mov    %esp,%ebp
 804cd23:	83 ec 18             	sub    $0x18,%esp
 804cd26:	8b 45 08             	mov    0x8(%ebp),%eax
 804cd29:	89 04 24             	mov    %eax,(%esp)
 804cd2c:	e8 3d 01 00 00       	call   804ce6e <_ZNSt10_Iter_baseIPPNSt3tr18functionIFvvEEELb0EE7_S_baseES5_>
 804cd31:	c9                   	leave  
 804cd32:	c3                   	ret    

0804cd33 <_ZSt14__copy_move_a2ILb0EPPNSt3tr18functionIFvvEEES5_ET1_T0_S7_S6_>:
 804cd33:	55                   	push   %ebp
 804cd34:	89 e5                	mov    %esp,%ebp
 804cd36:	56                   	push   %esi
 804cd37:	53                   	push   %ebx
 804cd38:	83 ec 10             	sub    $0x10,%esp
 804cd3b:	8b 45 10             	mov    0x10(%ebp),%eax
 804cd3e:	89 04 24             	mov    %eax,(%esp)
 804cd41:	e8 30 01 00 00       	call   804ce76 <_ZSt12__niter_baseIPPNSt3tr18functionIFvvEEEENSt11_Niter_baseIT_E13iterator_typeES7_>
 804cd46:	89 c6                	mov    %eax,%esi
 804cd48:	8b 45 0c             	mov    0xc(%ebp),%eax
 804cd4b:	89 04 24             	mov    %eax,(%esp)
 804cd4e:	e8 23 01 00 00       	call   804ce76 <_ZSt12__niter_baseIPPNSt3tr18functionIFvvEEEENSt11_Niter_baseIT_E13iterator_typeES7_>
 804cd53:	89 c3                	mov    %eax,%ebx
 804cd55:	8b 45 08             	mov    0x8(%ebp),%eax
 804cd58:	89 04 24             	mov    %eax,(%esp)
 804cd5b:	e8 16 01 00 00       	call   804ce76 <_ZSt12__niter_baseIPPNSt3tr18functionIFvvEEEENSt11_Niter_baseIT_E13iterator_typeES7_>
 804cd60:	89 74 24 08          	mov    %esi,0x8(%esp)
 804cd64:	89 5c 24 04          	mov    %ebx,0x4(%esp)
 804cd68:	89 04 24             	mov    %eax,(%esp)
 804cd6b:	e8 19 01 00 00       	call   804ce89 <_ZSt13__copy_move_aILb0EPPNSt3tr18functionIFvvEEES5_ET1_T0_S7_S6_>
 804cd70:	83 c4 10             	add    $0x10,%esp
 804cd73:	5b                   	pop    %ebx
 804cd74:	5e                   	pop    %esi
 804cd75:	5d                   	pop    %ebp
 804cd76:	c3                   	ret    

0804cd77 <_ZSt23__copy_move_backward_a2ILb0EPPNSt3tr18functionIFvvEEES5_ET1_T0_S7_S6_>:
 804cd77:	55                   	push   %ebp
 804cd78:	89 e5                	mov    %esp,%ebp
 804cd7a:	56                   	push   %esi
 804cd7b:	53                   	push   %ebx
 804cd7c:	83 ec 10             	sub    $0x10,%esp
 804cd7f:	8b 45 10             	mov    0x10(%ebp),%eax
 804cd82:	89 04 24             	mov    %eax,(%esp)
 804cd85:	e8 ec 00 00 00       	call   804ce76 <_ZSt12__niter_baseIPPNSt3tr18functionIFvvEEEENSt11_Niter_baseIT_E13iterator_typeES7_>
 804cd8a:	89 c6                	mov    %eax,%esi
 804cd8c:	8b 45 0c             	mov    0xc(%ebp),%eax
 804cd8f:	89 04 24             	mov    %eax,(%esp)
 804cd92:	e8 df 00 00 00       	call   804ce76 <_ZSt12__niter_baseIPPNSt3tr18functionIFvvEEEENSt11_Niter_baseIT_E13iterator_typeES7_>
 804cd97:	89 c3                	mov    %eax,%ebx
 804cd99:	8b 45 08             	mov    0x8(%ebp),%eax
 804cd9c:	89 04 24             	mov    %eax,(%esp)
 804cd9f:	e8 d2 00 00 00       	call   804ce76 <_ZSt12__niter_baseIPPNSt3tr18functionIFvvEEEENSt11_Niter_baseIT_E13iterator_typeES7_>
 804cda4:	89 74 24 08          	mov    %esi,0x8(%esp)
 804cda8:	89 5c 24 04          	mov    %ebx,0x4(%esp)
 804cdac:	89 04 24             	mov    %eax,(%esp)
 804cdaf:	e8 fa 00 00 00       	call   804ceae <_ZSt22__copy_move_backward_aILb0EPPNSt3tr18functionIFvvEEES5_ET1_T0_S7_S6_>
 804cdb4:	83 c4 10             	add    $0x10,%esp
 804cdb7:	5b                   	pop    %ebx
 804cdb8:	5e                   	pop    %esi
 804cdb9:	5d                   	pop    %ebp
 804cdba:	c3                   	ret    

0804cdbb <_ZNSt10_Iter_baseIN9__gnu_cxx17__normal_iteratorIPKiSt6vectorIiSaIiEEEELb0EE7_S_baseES7_>:
 804cdbb:	55                   	push   %ebp
 804cdbc:	89 e5                	mov    %esp,%ebp
 804cdbe:	8b 45 08             	mov    0x8(%ebp),%eax
 804cdc1:	8b 55 0c             	mov    0xc(%ebp),%edx
 804cdc4:	89 10                	mov    %edx,(%eax)
 804cdc6:	8b 45 08             	mov    0x8(%ebp),%eax
 804cdc9:	5d                   	pop    %ebp
 804cdca:	c2 04 00             	ret    $0x4

0804cdcd <_ZSt12__niter_baseIN9__gnu_cxx17__normal_iteratorIPKiSt6vectorIiSaIiEEEEENSt11_Niter_baseIT_E13iterator_typeES9_>:
 804cdcd:	55                   	push   %ebp
 804cdce:	89 e5                	mov    %esp,%ebp
 804cdd0:	83 ec 18             	sub    $0x18,%esp
 804cdd3:	8b 45 08             	mov    0x8(%ebp),%eax
 804cdd6:	89 04 24             	mov    %eax,(%esp)
 804cdd9:	e8 f5 00 00 00       	call   804ced3 <_ZNSt10_Iter_baseIN9__gnu_cxx17__normal_iteratorIPKiSt6vectorIiSaIiEEEELb1EE7_S_baseES7_>
 804cdde:	c9                   	leave  
 804cddf:	c3                   	ret    

0804cde0 <_ZSt13__copy_move_aILb0EPKiPiET1_T0_S4_S3_>:
 804cde0:	55                   	push   %ebp
 804cde1:	89 e5                	mov    %esp,%ebp
 804cde3:	83 ec 28             	sub    $0x28,%esp
 804cde6:	c6 45 f7 01          	movb   $0x1,-0x9(%ebp)
 804cdea:	8b 45 10             	mov    0x10(%ebp),%eax
 804cded:	89 44 24 08          	mov    %eax,0x8(%esp)
 804cdf1:	8b 45 0c             	mov    0xc(%ebp),%eax
 804cdf4:	89 44 24 04          	mov    %eax,0x4(%esp)
 804cdf8:	8b 45 08             	mov    0x8(%ebp),%eax
 804cdfb:	89 04 24             	mov    %eax,(%esp)
 804cdfe:	e8 e5 00 00 00       	call   804cee8 <_ZNSt11__copy_moveILb0ELb1ESt26random_access_iterator_tagE8__copy_mIiEEPT_PKS3_S6_S4_>
 804ce03:	c9                   	leave  
 804ce04:	c3                   	ret    

0804ce05 <_ZSt4copyIPiS0_ET0_T_S2_S1_>:
 804ce05:	55                   	push   %ebp
 804ce06:	89 e5                	mov    %esp,%ebp
 804ce08:	53                   	push   %ebx
 804ce09:	83 ec 14             	sub    $0x14,%esp
 804ce0c:	8b 45 0c             	mov    0xc(%ebp),%eax
 804ce0f:	89 04 24             	mov    %eax,(%esp)
 804ce12:	e8 08 f5 ff ff       	call   804c31f <_ZSt12__miter_baseIPiENSt11_Miter_baseIT_E13iterator_typeES2_>
 804ce17:	89 c3                	mov    %eax,%ebx
 804ce19:	8b 45 08             	mov    0x8(%ebp),%eax
 804ce1c:	89 04 24             	mov    %eax,(%esp)
 804ce1f:	e8 fb f4 ff ff       	call   804c31f <_ZSt12__miter_baseIPiENSt11_Miter_baseIT_E13iterator_typeES2_>
 804ce24:	8b 55 10             	mov    0x10(%ebp),%edx
 804ce27:	89 54 24 08          	mov    %edx,0x8(%esp)
 804ce2b:	89 5c 24 04          	mov    %ebx,0x4(%esp)
 804ce2f:	89 04 24             	mov    %eax,(%esp)
 804ce32:	e8 f6 00 00 00       	call   804cf2d <_ZSt14__copy_move_a2ILb0EPiS0_ET1_T0_S2_S1_>
 804ce37:	83 c4 14             	add    $0x14,%esp
 804ce3a:	5b                   	pop    %ebx
 804ce3b:	5d                   	pop    %ebp
 804ce3c:	c3                   	ret    

0804ce3d <_ZNSt15_Deque_iteratorINSt3tr18functionIFvvEEERKS3_PS4_E14_S_buffer_sizeEv>:
 804ce3d:	55                   	push   %ebp
 804ce3e:	89 e5                	mov    %esp,%ebp
 804ce40:	83 ec 18             	sub    $0x18,%esp
 804ce43:	c7 04 24 10 00 00 00 	movl   $0x10,(%esp)
 804ce4a:	e8 4e c7 ff ff       	call   804959d <_ZSt16__deque_buf_sizej>
 804ce4f:	c9                   	leave  
 804ce50:	c3                   	ret    

0804ce51 <_ZStneINSt3tr18functionIFvvEEERS3_PS3_EbRKSt15_Deque_iteratorIT_T0_T1_ESC_>:
 804ce51:	55                   	push   %ebp
 804ce52:	89 e5                	mov    %esp,%ebp
 804ce54:	83 ec 18             	sub    $0x18,%esp
 804ce57:	8b 45 0c             	mov    0xc(%ebp),%eax
 804ce5a:	89 44 24 04          	mov    %eax,0x4(%esp)
 804ce5e:	8b 45 08             	mov    0x8(%ebp),%eax
 804ce61:	89 04 24             	mov    %eax,(%esp)
 804ce64:	e8 4b e7 ff ff       	call   804b5b4 <_ZSteqINSt3tr18functionIFvvEEERS3_PS3_EbRKSt15_Deque_iteratorIT_T0_T1_ESC_>
 804ce69:	83 f0 01             	xor    $0x1,%eax
 804ce6c:	c9                   	leave  
 804ce6d:	c3                   	ret    

0804ce6e <_ZNSt10_Iter_baseIPPNSt3tr18functionIFvvEEELb0EE7_S_baseES5_>:
 804ce6e:	55                   	push   %ebp
 804ce6f:	89 e5                	mov    %esp,%ebp
 804ce71:	8b 45 08             	mov    0x8(%ebp),%eax
 804ce74:	5d                   	pop    %ebp
 804ce75:	c3                   	ret    

0804ce76 <_ZSt12__niter_baseIPPNSt3tr18functionIFvvEEEENSt11_Niter_baseIT_E13iterator_typeES7_>:
 804ce76:	55                   	push   %ebp
 804ce77:	89 e5                	mov    %esp,%ebp
 804ce79:	83 ec 18             	sub    $0x18,%esp
 804ce7c:	8b 45 08             	mov    0x8(%ebp),%eax
 804ce7f:	89 04 24             	mov    %eax,(%esp)
 804ce82:	e8 e7 ff ff ff       	call   804ce6e <_ZNSt10_Iter_baseIPPNSt3tr18functionIFvvEEELb0EE7_S_baseES5_>
 804ce87:	c9                   	leave  
 804ce88:	c3                   	ret    

0804ce89 <_ZSt13__copy_move_aILb0EPPNSt3tr18functionIFvvEEES5_ET1_T0_S7_S6_>:
 804ce89:	55                   	push   %ebp
 804ce8a:	89 e5                	mov    %esp,%ebp
 804ce8c:	83 ec 28             	sub    $0x28,%esp
 804ce8f:	c6 45 f7 01          	movb   $0x1,-0x9(%ebp)
 804ce93:	8b 45 10             	mov    0x10(%ebp),%eax
 804ce96:	89 44 24 08          	mov    %eax,0x8(%esp)
 804ce9a:	8b 45 0c             	mov    0xc(%ebp),%eax
 804ce9d:	89 44 24 04          	mov    %eax,0x4(%esp)
 804cea1:	8b 45 08             	mov    0x8(%ebp),%eax
 804cea4:	89 04 24             	mov    %eax,(%esp)
 804cea7:	e8 c5 00 00 00       	call   804cf71 <_ZNSt11__copy_moveILb0ELb1ESt26random_access_iterator_tagE8__copy_mIPNSt3tr18functionIFvvEEEEEPT_PKS8_SB_S9_>
 804ceac:	c9                   	leave  
 804cead:	c3                   	ret    

0804ceae <_ZSt22__copy_move_backward_aILb0EPPNSt3tr18functionIFvvEEES5_ET1_T0_S7_S6_>:
 804ceae:	55                   	push   %ebp
 804ceaf:	89 e5                	mov    %esp,%ebp
 804ceb1:	83 ec 28             	sub    $0x28,%esp
 804ceb4:	c6 45 f7 01          	movb   $0x1,-0x9(%ebp)
 804ceb8:	8b 45 10             	mov    0x10(%ebp),%eax
 804cebb:	89 44 24 08          	mov    %eax,0x8(%esp)
 804cebf:	8b 45 0c             	mov    0xc(%ebp),%eax
 804cec2:	89 44 24 04          	mov    %eax,0x4(%esp)
 804cec6:	8b 45 08             	mov    0x8(%ebp),%eax
 804cec9:	89 04 24             	mov    %eax,(%esp)
 804cecc:	e8 e5 00 00 00       	call   804cfb6 <_ZNSt20__copy_move_backwardILb0ELb1ESt26random_access_iterator_tagE13__copy_move_bIPNSt3tr18functionIFvvEEEEEPT_PKS8_SB_S9_>
 804ced1:	c9                   	leave  
 804ced2:	c3                   	ret    

0804ced3 <_ZNSt10_Iter_baseIN9__gnu_cxx17__normal_iteratorIPKiSt6vectorIiSaIiEEEELb1EE7_S_baseES7_>:
 804ced3:	55                   	push   %ebp
 804ced4:	89 e5                	mov    %esp,%ebp
 804ced6:	83 ec 18             	sub    $0x18,%esp
 804ced9:	8d 45 08             	lea    0x8(%ebp),%eax
 804cedc:	89 04 24             	mov    %eax,(%esp)
 804cedf:	e8 26 01 00 00       	call   804d00a <_ZNK9__gnu_cxx17__normal_iteratorIPKiSt6vectorIiSaIiEEE4baseEv>
 804cee4:	8b 00                	mov    (%eax),%eax
 804cee6:	c9                   	leave  
 804cee7:	c3                   	ret    

0804cee8 <_ZNSt11__copy_moveILb0ELb1ESt26random_access_iterator_tagE8__copy_mIiEEPT_PKS3_S6_S4_>:
 804cee8:	55                   	push   %ebp
 804cee9:	89 e5                	mov    %esp,%ebp
 804ceeb:	83 ec 28             	sub    $0x28,%esp
 804ceee:	8b 55 0c             	mov    0xc(%ebp),%edx
 804cef1:	8b 45 08             	mov    0x8(%ebp),%eax
 804cef4:	89 d1                	mov    %edx,%ecx
 804cef6:	29 c1                	sub    %eax,%ecx
 804cef8:	89 c8                	mov    %ecx,%eax
 804cefa:	c1 f8 02             	sar    $0x2,%eax
 804cefd:	89 45 f4             	mov    %eax,-0xc(%ebp)
 804cf00:	83 7d f4 00          	cmpl   $0x0,-0xc(%ebp)
 804cf04:	74 1c                	je     804cf22 <_ZNSt11__copy_moveILb0ELb1ESt26random_access_iterator_tagE8__copy_mIiEEPT_PKS3_S6_S4_+0x3a>
 804cf06:	8b 45 f4             	mov    -0xc(%ebp),%eax
 804cf09:	c1 e0 02             	shl    $0x2,%eax
 804cf0c:	89 44 24 08          	mov    %eax,0x8(%esp)
 804cf10:	8b 45 08             	mov    0x8(%ebp),%eax
 804cf13:	89 44 24 04          	mov    %eax,0x4(%esp)
 804cf17:	8b 45 10             	mov    0x10(%ebp),%eax
 804cf1a:	89 04 24             	mov    %eax,(%esp)
 804cf1d:	e8 0e c2 ff ff       	call   8049130 <memmove@plt>
 804cf22:	8b 45 f4             	mov    -0xc(%ebp),%eax
 804cf25:	c1 e0 02             	shl    $0x2,%eax
 804cf28:	03 45 10             	add    0x10(%ebp),%eax
 804cf2b:	c9                   	leave  
 804cf2c:	c3                   	ret    

0804cf2d <_ZSt14__copy_move_a2ILb0EPiS0_ET1_T0_S2_S1_>:
 804cf2d:	55                   	push   %ebp
 804cf2e:	89 e5                	mov    %esp,%ebp
 804cf30:	56                   	push   %esi
 804cf31:	53                   	push   %ebx
 804cf32:	83 ec 10             	sub    $0x10,%esp
 804cf35:	8b 45 10             	mov    0x10(%ebp),%eax
 804cf38:	89 04 24             	mov    %eax,(%esp)
 804cf3b:	e8 cf f9 ff ff       	call   804c90f <_ZSt12__niter_baseIPiENSt11_Niter_baseIT_E13iterator_typeES2_>
 804cf40:	89 c6                	mov    %eax,%esi
 804cf42:	8b 45 0c             	mov    0xc(%ebp),%eax
 804cf45:	89 04 24             	mov    %eax,(%esp)
 804cf48:	e8 c2 f9 ff ff       	call   804c90f <_ZSt12__niter_baseIPiENSt11_Niter_baseIT_E13iterator_typeES2_>
 804cf4d:	89 c3                	mov    %eax,%ebx
 804cf4f:	8b 45 08             	mov    0x8(%ebp),%eax
 804cf52:	89 04 24             	mov    %eax,(%esp)
 804cf55:	e8 b5 f9 ff ff       	call   804c90f <_ZSt12__niter_baseIPiENSt11_Niter_baseIT_E13iterator_typeES2_>
 804cf5a:	89 74 24 08          	mov    %esi,0x8(%esp)
 804cf5e:	89 5c 24 04          	mov    %ebx,0x4(%esp)
 804cf62:	89 04 24             	mov    %eax,(%esp)
 804cf65:	e8 a8 00 00 00       	call   804d012 <_ZSt13__copy_move_aILb0EPiS0_ET1_T0_S2_S1_>
 804cf6a:	83 c4 10             	add    $0x10,%esp
 804cf6d:	5b                   	pop    %ebx
 804cf6e:	5e                   	pop    %esi
 804cf6f:	5d                   	pop    %ebp
 804cf70:	c3                   	ret    

0804cf71 <_ZNSt11__copy_moveILb0ELb1ESt26random_access_iterator_tagE8__copy_mIPNSt3tr18functionIFvvEEEEEPT_PKS8_SB_S9_>:
 804cf71:	55                   	push   %ebp
 804cf72:	89 e5                	mov    %esp,%ebp
 804cf74:	83 ec 28             	sub    $0x28,%esp
 804cf77:	8b 55 0c             	mov    0xc(%ebp),%edx
 804cf7a:	8b 45 08             	mov    0x8(%ebp),%eax
 804cf7d:	89 d1                	mov    %edx,%ecx
 804cf7f:	29 c1                	sub    %eax,%ecx
 804cf81:	89 c8                	mov    %ecx,%eax
 804cf83:	c1 f8 02             	sar    $0x2,%eax
 804cf86:	89 45 f4             	mov    %eax,-0xc(%ebp)
 804cf89:	83 7d f4 00          	cmpl   $0x0,-0xc(%ebp)
 804cf8d:	74 1c                	je     804cfab <_ZNSt11__copy_moveILb0ELb1ESt26random_access_iterator_tagE8__copy_mIPNSt3tr18functionIFvvEEEEEPT_PKS8_SB_S9_+0x3a>
 804cf8f:	8b 45 f4             	mov    -0xc(%ebp),%eax
 804cf92:	c1 e0 02             	shl    $0x2,%eax
 804cf95:	89 44 24 08          	mov    %eax,0x8(%esp)
 804cf99:	8b 45 08             	mov    0x8(%ebp),%eax
 804cf9c:	89 44 24 04          	mov    %eax,0x4(%esp)
 804cfa0:	8b 45 10             	mov    0x10(%ebp),%eax
 804cfa3:	89 04 24             	mov    %eax,(%esp)
 804cfa6:	e8 85 c1 ff ff       	call   8049130 <memmove@plt>
 804cfab:	8b 45 f4             	mov    -0xc(%ebp),%eax
 804cfae:	c1 e0 02             	shl    $0x2,%eax
 804cfb1:	03 45 10             	add    0x10(%ebp),%eax
 804cfb4:	c9                   	leave  
 804cfb5:	c3                   	ret    

0804cfb6 <_ZNSt20__copy_move_backwardILb0ELb1ESt26random_access_iterator_tagE13__copy_move_bIPNSt3tr18functionIFvvEEEEEPT_PKS8_SB_S9_>:
 804cfb6:	55                   	push   %ebp
 804cfb7:	89 e5                	mov    %esp,%ebp
 804cfb9:	83 ec 28             	sub    $0x28,%esp
 804cfbc:	8b 55 0c             	mov    0xc(%ebp),%edx
 804cfbf:	8b 45 08             	mov    0x8(%ebp),%eax
 804cfc2:	89 d1                	mov    %edx,%ecx
 804cfc4:	29 c1                	sub    %eax,%ecx
 804cfc6:	89 c8                	mov    %ecx,%eax
 804cfc8:	c1 f8 02             	sar    $0x2,%eax
 804cfcb:	89 45 f4             	mov    %eax,-0xc(%ebp)
 804cfce:	83 7d f4 00          	cmpl   $0x0,-0xc(%ebp)
 804cfd2:	74 28                	je     804cffc <_ZNSt20__copy_move_backwardILb0ELb1ESt26random_access_iterator_tagE13__copy_move_bIPNSt3tr18functionIFvvEEEEEPT_PKS8_SB_S9_+0x46>
 804cfd4:	8b 45 f4             	mov    -0xc(%ebp),%eax
 804cfd7:	8d 14 85 00 00 00 00 	lea    0x0(,%eax,4),%edx
 804cfde:	8b 45 f4             	mov    -0xc(%ebp),%eax
 804cfe1:	c1 e0 02             	shl    $0x2,%eax
 804cfe4:	f7 d8                	neg    %eax
 804cfe6:	03 45 10             	add    0x10(%ebp),%eax
 804cfe9:	89 54 24 08          	mov    %edx,0x8(%esp)
 804cfed:	8b 55 08             	mov    0x8(%ebp),%edx
 804cff0:	89 54 24 04          	mov    %edx,0x4(%esp)
 804cff4:	89 04 24             	mov    %eax,(%esp)
 804cff7:	e8 34 c1 ff ff       	call   8049130 <memmove@plt>
 804cffc:	8b 45 f4             	mov    -0xc(%ebp),%eax
 804cfff:	c1 e0 02             	shl    $0x2,%eax
 804d002:	f7 d8                	neg    %eax
 804d004:	03 45 10             	add    0x10(%ebp),%eax
 804d007:	c9                   	leave  
 804d008:	c3                   	ret    
 804d009:	90                   	nop

0804d00a <_ZNK9__gnu_cxx17__normal_iteratorIPKiSt6vectorIiSaIiEEE4baseEv>:
 804d00a:	55                   	push   %ebp
 804d00b:	89 e5                	mov    %esp,%ebp
 804d00d:	8b 45 08             	mov    0x8(%ebp),%eax
 804d010:	5d                   	pop    %ebp
 804d011:	c3                   	ret    

0804d012 <_ZSt13__copy_move_aILb0EPiS0_ET1_T0_S2_S1_>:
 804d012:	55                   	push   %ebp
 804d013:	89 e5                	mov    %esp,%ebp
 804d015:	83 ec 28             	sub    $0x28,%esp
 804d018:	c6 45 f7 01          	movb   $0x1,-0x9(%ebp)
 804d01c:	8b 45 10             	mov    0x10(%ebp),%eax
 804d01f:	89 44 24 08          	mov    %eax,0x8(%esp)
 804d023:	8b 45 0c             	mov    0xc(%ebp),%eax
 804d026:	89 44 24 04          	mov    %eax,0x4(%esp)
 804d02a:	8b 45 08             	mov    0x8(%ebp),%eax
 804d02d:	89 04 24             	mov    %eax,(%esp)
 804d030:	e8 b3 fe ff ff       	call   804cee8 <_ZNSt11__copy_moveILb0ELb1ESt26random_access_iterator_tagE8__copy_mIiEEPT_PKS3_S6_S4_>
 804d035:	c9                   	leave  
 804d036:	c3                   	ret    
 804d037:	90                   	nop
 804d038:	90                   	nop
 804d039:	90                   	nop
 804d03a:	90                   	nop
 804d03b:	90                   	nop
 804d03c:	90                   	nop
 804d03d:	90                   	nop
 804d03e:	90                   	nop
 804d03f:	90                   	nop

0804d040 <__libc_csu_init>:
 804d040:	55                   	push   %ebp
 804d041:	57                   	push   %edi
 804d042:	56                   	push   %esi
 804d043:	53                   	push   %ebx
 804d044:	e8 69 00 00 00       	call   804d0b2 <__i686.get_pc_thunk.bx>
 804d049:	81 c3 ab 4f 00 00    	add    $0x4fab,%ebx
 804d04f:	83 ec 1c             	sub    $0x1c,%esp
 804d052:	8b 6c 24 30          	mov    0x30(%esp),%ebp
 804d056:	8d bb f0 fe ff ff    	lea    -0x110(%ebx),%edi
 804d05c:	e8 0b be ff ff       	call   8048e6c <_init>
 804d061:	8d 83 ec fe ff ff    	lea    -0x114(%ebx),%eax
 804d067:	29 c7                	sub    %eax,%edi
 804d069:	c1 ff 02             	sar    $0x2,%edi
 804d06c:	85 ff                	test   %edi,%edi
 804d06e:	74 29                	je     804d099 <__libc_csu_init+0x59>
 804d070:	31 f6                	xor    %esi,%esi
 804d072:	8d b6 00 00 00 00    	lea    0x0(%esi),%esi
 804d078:	8b 44 24 38          	mov    0x38(%esp),%eax
 804d07c:	89 2c 24             	mov    %ebp,(%esp)
 804d07f:	89 44 24 08          	mov    %eax,0x8(%esp)
 804d083:	8b 44 24 34          	mov    0x34(%esp),%eax
 804d087:	89 44 24 04          	mov    %eax,0x4(%esp)
 804d08b:	ff 94 b3 ec fe ff ff 	call   *-0x114(%ebx,%esi,4)
 804d092:	83 c6 01             	add    $0x1,%esi
 804d095:	39 fe                	cmp    %edi,%esi
 804d097:	75 df                	jne    804d078 <__libc_csu_init+0x38>
 804d099:	83 c4 1c             	add    $0x1c,%esp
 804d09c:	5b                   	pop    %ebx
 804d09d:	5e                   	pop    %esi
 804d09e:	5f                   	pop    %edi
 804d09f:	5d                   	pop    %ebp
 804d0a0:	c3                   	ret    
 804d0a1:	eb 0d                	jmp    804d0b0 <__libc_csu_fini>
 804d0a3:	90                   	nop
 804d0a4:	90                   	nop
 804d0a5:	90                   	nop
 804d0a6:	90                   	nop
 804d0a7:	90                   	nop
 804d0a8:	90                   	nop
 804d0a9:	90                   	nop
 804d0aa:	90                   	nop
 804d0ab:	90                   	nop
 804d0ac:	90                   	nop
 804d0ad:	90                   	nop
 804d0ae:	90                   	nop
 804d0af:	90                   	nop

0804d0b0 <__libc_csu_fini>:
 804d0b0:	f3 c3                	repz ret 

0804d0b2 <__i686.get_pc_thunk.bx>:
 804d0b2:	8b 1c 24             	mov    (%esp),%ebx
 804d0b5:	c3                   	ret    
 804d0b6:	90                   	nop
 804d0b7:	90                   	nop
 804d0b8:	90                   	nop
 804d0b9:	90                   	nop
 804d0ba:	90                   	nop
 804d0bb:	90                   	nop
 804d0bc:	90                   	nop
 804d0bd:	90                   	nop
 804d0be:	90                   	nop
 804d0bf:	90                   	nop

0804d0c0 <__do_global_ctors_aux>:
 804d0c0:	55                   	push   %ebp
 804d0c1:	89 e5                	mov    %esp,%ebp
 804d0c3:	53                   	push   %ebx
 804d0c4:	83 ec 04             	sub    $0x4,%esp
 804d0c7:	a1 e4 1e 05 08       	mov    0x8051ee4,%eax
 804d0cc:	83 f8 ff             	cmp    $0xffffffff,%eax
 804d0cf:	74 13                	je     804d0e4 <__do_global_ctors_aux+0x24>
 804d0d1:	bb e4 1e 05 08       	mov    $0x8051ee4,%ebx
 804d0d6:	66 90                	xchg   %ax,%ax
 804d0d8:	83 eb 04             	sub    $0x4,%ebx
 804d0db:	ff d0                	call   *%eax
 804d0dd:	8b 03                	mov    (%ebx),%eax
 804d0df:	83 f8 ff             	cmp    $0xffffffff,%eax
 804d0e2:	75 f4                	jne    804d0d8 <__do_global_ctors_aux+0x18>
 804d0e4:	83 c4 04             	add    $0x4,%esp
 804d0e7:	5b                   	pop    %ebx
 804d0e8:	5d                   	pop    %ebp
 804d0e9:	c3                   	ret    
 804d0ea:	90                   	nop
 804d0eb:	90                   	nop

Disassembly of section .fini:

0804d0ec <_fini>:
 804d0ec:	53                   	push   %ebx
 804d0ed:	83 ec 08             	sub    $0x8,%esp
 804d0f0:	e8 00 00 00 00       	call   804d0f5 <_fini+0x9>
 804d0f5:	5b                   	pop    %ebx
 804d0f6:	81 c3 ff 4e 00 00    	add    $0x4eff,%ebx
 804d0fc:	e8 bf c0 ff ff       	call   80491c0 <__do_global_dtors_aux>
 804d101:	83 c4 08             	add    $0x8,%esp
 804d104:	5b                   	pop    %ebx
 804d105:	c3                   	ret    
